Component: ARM Compiler 5.06 update 6 (build 750) Tool: armlink [4d35ed]

==============================================================================

Section Cross References

    alarms.o(i.alarmHandler) refers to alarms.o(i.alarmPatternComposer) for alarmPatternComposer
    alarms.o(i.alarmHandler) refers to multiwii.o(.data) for f
    alarms.o(i.alarmHandler) refers to multiwii.o(.bss) for alarmArray
    alarms.o(i.alarmHandler) refers to alarms.o(.data) for i2c_errors_count_old
    alarms.o(i.blinkLED) refers to delay.o(i.delay) for delay
    alarms.o(i.patternDecode) refers to alarms.o(i.setTiming) for setTiming
    alarms.o(i.patternDecode) refers to timer.o(i.millis) for millis
    alarms.o(i.patternDecode) refers to alarms.o(i.turnOff) for turnOff
    alarms.o(i.patternDecode) refers to alarms.o(.data) for SequenceActive
    alarms.o(i.patternDecode) refers to alarms.o(.bss) for pattern
    alarms.o(i.patternDecode) refers to multiwii.o(.bss) for alarmArray
    alarms.o(i.setTiming) refers to timer.o(i.millis) for millis
    alarms.o(i.setTiming) refers to alarms.o(i.toggleResource) for toggleResource
    alarms.o(i.setTiming) refers to alarms.o(.data) for resourceIsOn
    alarms.o(i.setTiming) refers to alarms.o(.bss) for LastToggleTime
    alarms.o(i.toggleResource) refers to stm32f10x_gpio.o(i.GPIO_ResetBits) for GPIO_ResetBits
    alarms.o(i.toggleResource) refers to stm32f10x_gpio.o(i.GPIO_SetBits) for GPIO_SetBits
    alarms.o(i.turnOff) refers to stm32f10x_gpio.o(i.GPIO_SetBits) for GPIO_SetBits
    alarms.o(i.turnOff) refers to alarms.o(.data) for resourceIsOn
    eeprom.o(i.LoadDefaults) refers to eeprom.o(i.update_constants) for update_constants
    eeprom.o(i.LoadDefaults) refers to multiwii.o(.bss) for conf
    eeprom.o(i.LoadDefaults) refers to eeprom.o(.data) for sr
    eeprom.o(i.loadGPSdefaults) refers to eeprom.o(i.getMaxWPNumber) for getMaxWPNumber
    eeprom.o(i.loadGPSdefaults) refers to eeprom.o(i.writeGPSconf) for writeGPSconf
    eeprom.o(i.loadGPSdefaults) refers to multiwii.o(.bss) for GPS_conf
    eeprom.o(i.readEEPROM) refers to re_eeprom.o(i.eeprom_read_block) for eeprom_read_block
    eeprom.o(i.readEEPROM) refers to eeprom.o(i.calculate_sum) for calculate_sum
    eeprom.o(i.readEEPROM) refers to alarms.o(i.blinkLED) for blinkLED
    eeprom.o(i.readEEPROM) refers to eeprom.o(i.LoadDefaults) for LoadDefaults
    eeprom.o(i.readEEPROM) refers to gps.o(i.GPS_set_pids) for GPS_set_pids
    eeprom.o(i.readEEPROM) refers to eeprom.o(i.recallGPSconf) for recallGPSconf
    eeprom.o(i.readEEPROM) refers to multiwii.o(.bss) for global_conf
    eeprom.o(i.readGlobalSet) refers to re_eeprom.o(i.eeprom_read_block) for eeprom_read_block
    eeprom.o(i.readGlobalSet) refers to eeprom.o(i.calculate_sum) for calculate_sum
    eeprom.o(i.readGlobalSet) refers to multiwii.o(.bss) for global_conf
    eeprom.o(i.recallGPSconf) refers to re_eeprom.o(i.eeprom_read_block) for eeprom_read_block
    eeprom.o(i.recallGPSconf) refers to eeprom.o(i.calculate_sum) for calculate_sum
    eeprom.o(i.recallGPSconf) refers to eeprom.o(i.loadGPSdefaults) for loadGPSdefaults
    eeprom.o(i.recallGPSconf) refers to multiwii.o(.bss) for GPS_conf
    eeprom.o(i.recallWP) refers to re_eeprom.o(i.eeprom_read_block) for eeprom_read_block
    eeprom.o(i.recallWP) refers to eeprom.o(i.calculate_sum) for calculate_sum
    eeprom.o(i.recallWP) refers to multiwii.o(.bss) for mission_step
    eeprom.o(i.storeWP) refers to eeprom.o(i.calculate_sum) for calculate_sum
    eeprom.o(i.storeWP) refers to re_eeprom.o(i.eeprom_write_block) for eeprom_write_block
    eeprom.o(i.storeWP) refers to multiwii.o(.bss) for mission_step
    eeprom.o(i.update_constants) refers to eeprom.o(i.loadGPSdefaults) for loadGPSdefaults
    eeprom.o(i.update_constants) refers to eeprom.o(i.writeParams) for writeParams
    eeprom.o(i.update_constants) refers to multiwii.o(.bss) for conf
    eeprom.o(i.writeGPSconf) refers to eeprom.o(i.calculate_sum) for calculate_sum
    eeprom.o(i.writeGPSconf) refers to re_eeprom.o(i.eeprom_write_block) for eeprom_write_block
    eeprom.o(i.writeGPSconf) refers to multiwii.o(.bss) for GPS_conf
    eeprom.o(i.writeGlobalSet) refers to eeprom.o(i.calculate_sum) for calculate_sum
    eeprom.o(i.writeGlobalSet) refers to re_eeprom.o(i.eeprom_write_block) for eeprom_write_block
    eeprom.o(i.writeGlobalSet) refers to alarms.o(i.blinkLED) for blinkLED
    eeprom.o(i.writeGlobalSet) refers to multiwii.o(.bss) for global_conf
    eeprom.o(i.writeParams) refers to eeprom.o(i.calculate_sum) for calculate_sum
    eeprom.o(i.writeParams) refers to re_eeprom.o(i.eeprom_write_block) for eeprom_write_block
    eeprom.o(i.writeParams) refers to eeprom.o(i.writeGPSconf) for writeGPSconf
    eeprom.o(i.writeParams) refers to eeprom.o(i.recallGPSconf) for recallGPSconf
    eeprom.o(i.writeParams) refers to eeprom.o(i.readEEPROM) for readEEPROM
    eeprom.o(i.writeParams) refers to alarms.o(i.blinkLED) for blinkLED
    eeprom.o(i.writeParams) refers to multiwii.o(.bss) for global_conf
    gps.o(i.CradleControl) refers to gps.o(i.GPS_distance_cm) for GPS_distance_cm
    gps.o(i.CradleControl) refers to gps.o(i.GPS_bearing) for GPS_bearing
    gps.o(i.CradleControl) refers to gps.o(i.wrap_18000) for wrap_18000
    gps.o(i.CradleControl) refers to fflti.o(.text) for __aeabi_i2f
    gps.o(i.CradleControl) refers to fmul.o(.text) for __aeabi_fmul
    gps.o(i.CradleControl) refers to dflti.o(.text) for __aeabi_i2d
    gps.o(i.CradleControl) refers to f2d.o(.text) for __aeabi_f2d
    gps.o(i.CradleControl) refers to sin.o(i.sin) for sin
    gps.o(i.CradleControl) refers to dmul.o(.text) for __aeabi_dmul
    gps.o(i.CradleControl) refers to dfixi.o(.text) for __aeabi_d2iz
    gps.o(i.CradleControl) refers to imu.o(i._atan2) for _atan2
    gps.o(i.CradleControl) refers to cos.o(i.cos) for cos
    gps.o(i.CradleControl) refers to gps.o(.data) for Current_Heading
    gps.o(i.CradleControl) refers to multiwii.o(.data) for GPS_coord
    gps.o(i.FW_NAV) refers to gps.o(i.GPS_distance_cm) for GPS_distance_cm
    gps.o(i.FW_NAV) refers to timer.o(i.millis) for millis
    gps.o(i.FW_NAV) refers to ffltul.o(.text) for __aeabi_ul2f
    gps.o(i.FW_NAV) refers to fdiv.o(.text) for __aeabi_fdiv
    gps.o(i.FW_NAV) refers to fmul.o(.text) for __aeabi_fmul
    gps.o(i.FW_NAV) refers to fflti.o(.text) for __aeabi_i2f
    gps.o(i.FW_NAV) refers to fadd.o(.text) for __aeabi_fadd
    gps.o(i.FW_NAV) refers to cfcmple.o(.text) for __aeabi_cfcmple
    gps.o(i.FW_NAV) refers to cfrcmple.o(.text) for __aeabi_cfrcmple
    gps.o(i.FW_NAV) refers to ffixi.o(.text) for __aeabi_f2iz
    gps.o(i.FW_NAV) refers to multiwii.o(.data) for GPS_ground_course
    gps.o(i.FW_NAV) refers to multiwii.o(.bss) for rcData
    gps.o(i.FW_NAV) refers to gps.o(.data) for Current_Heading
    gps.o(i.FW_NAV) refers to gps.o(.bss) for altPID_PARAM
    gps.o(i.FW_NAV) refers to dflti.o(.text) for __aeabi_i2d
    gps.o(i.FW_NAV) refers to dmul.o(.text) for __aeabi_dmul
    gps.o(i.FW_NAV) refers to cdcmple.o(.text) for __aeabi_cdcmple
    gps.o(i.FW_NAV) refers to cdrcmple.o(.text) for __aeabi_cdrcmple
    gps.o(i.FW_NAV) refers to dfixi.o(.text) for __aeabi_d2iz
    gps.o(i.FW_NAV) refers to gps.o(i.FW_NavSpeed) for FW_NavSpeed
    gps.o(i.FW_NAV) refers to gps.o(i.CradleControl) for CradleControl
    gps.o(i.FW_NavSpeed) refers to fflti.o(.text) for __aeabi_i2f
    gps.o(i.FW_NavSpeed) refers to fmul.o(.text) for __aeabi_fmul
    gps.o(i.FW_NavSpeed) refers to ffixi.o(.text) for __aeabi_f2iz
    gps.o(i.FW_NavSpeed) refers to multiwii.o(.data) for GPS_speed
    gps.o(i.FW_NavSpeed) refers to gps.o(.data) for groundSpeedLast1
    gps.o(i.GPS_Compute) refers to timer.o(i.millis) for millis
    gps.o(i.GPS_Compute) refers to gps.o(i.GPS_reset_home_position) for GPS_reset_home_position
    gps.o(i.GPS_Compute) refers to ffltul.o(.text) for __aeabi_ul2f
    gps.o(i.GPS_Compute) refers to f2d.o(.text) for __aeabi_f2d
    gps.o(i.GPS_Compute) refers to ddiv.o(.text) for __aeabi_ddiv
    gps.o(i.GPS_Compute) refers to d2f.o(.text) for __aeabi_d2f
    gps.o(i.GPS_Compute) refers to cdcmple.o(.text) for __aeabi_cdcmple
    gps.o(i.GPS_Compute) refers to gps.o(i.GPS_bearing) for GPS_bearing
    gps.o(i.GPS_Compute) refers to gps.o(i.GPS_distance_cm) for GPS_distance_cm
    gps.o(i.GPS_Compute) refers to gps.o(i.init_RTH) for init_RTH
    gps.o(i.GPS_Compute) refers to gps.o(i.GPS_calc_velocity) for GPS_calc_velocity
    gps.o(i.GPS_Compute) refers to gps.o(i.get_new_altitude) for get_new_altitude
    gps.o(i.GPS_Compute) refers to gps.o(i.GPS_calc_poshold) for GPS_calc_poshold
    gps.o(i.GPS_Compute) refers to multiwii.o(.data) for f
    gps.o(i.GPS_Compute) refers to gps.o(.data) for timeMax
    gps.o(i.GPS_Compute) refers to multiwii.o(.bss) for GPS_conf
    gps.o(i.GPS_Compute) refers to gps.o(.bss) for GPS_filter
    gps.o(i.GPS_Compute) refers to gps.o(i.check_land) for check_land
    gps.o(i.GPS_Compute) refers to multiwii.o(i.go_disarm) for go_disarm
    gps.o(i.GPS_Compute) refers to gps.o(i.GPS_reset_nav) for GPS_reset_nav
    gps.o(i.GPS_Compute) refers to gps.o(i.GPS_set_next_wp) for GPS_set_next_wp
    gps.o(i.GPS_Compute) refers to gps.o(i.GPS_calc_desired_speed) for GPS_calc_desired_speed
    gps.o(i.GPS_Compute) refers to gps.o(i.GPS_calc_nav_rate) for GPS_calc_nav_rate
    gps.o(i.GPS_Compute) refers to gps.o(i.GPS_adjust_heading) for GPS_adjust_heading
    gps.o(i.GPS_Compute) refers to gps.o(i.check_missed_wp) for check_missed_wp
    gps.o(i.GPS_Compute) refers to fflti.o(.text) for __aeabi_i2f
    gps.o(i.GPS_Compute) refers to fdiv.o(.text) for __aeabi_fdiv
    gps.o(i.GPS_Compute) refers to dflti.o(.text) for __aeabi_i2d
    gps.o(i.GPS_Compute) refers to sqrt.o(i.sqrt) for sqrt
    gps.o(i.GPS_Compute) refers to dadd.o(.text) for __aeabi_dadd
    gps.o(i.GPS_Compute) refers to cfcmple.o(.text) for __aeabi_cfcmple
    gps.o(i.GPS_Compute) refers to ffltui.o(.text) for __aeabi_ui2f
    gps.o(i.GPS_Compute) refers to fmul.o(.text) for __aeabi_fmul
    gps.o(i.GPS_Compute) refers to ffixi.o(.text) for __aeabi_f2iz
    gps.o(i.GPS_Compute) refers to gps.o(i.set_new_altitude) for set_new_altitude
    gps.o(i.GPS_Compute) refers to eeprom.o(i.recallWP) for recallWP
    gps.o(i.GPS_Compute) refers to gps.o(i.abort_mission) for abort_mission
    gps.o(i.GPS_Compute) refers to gps.o(i.clearNav) for clearNav
    gps.o(i.GPS_adjust_heading) refers to gps.o(i.wrap_18000) for wrap_18000
    gps.o(i.GPS_adjust_heading) refers to gps.o(i.GPS_bearing) for GPS_bearing
    gps.o(i.GPS_adjust_heading) refers to gps.o(i.GPS_distance_cm) for GPS_distance_cm
    gps.o(i.GPS_adjust_heading) refers to multiwii.o(.data) for f
    gps.o(i.GPS_adjust_heading) refers to gps.o(.data) for wp_distance
    gps.o(i.GPS_adjust_heading) refers to multiwii.o(.bss) for GPS_conf
    gps.o(i.GPS_bearing) refers to fflti.o(.text) for __aeabi_i2f
    gps.o(i.GPS_bearing) refers to fdiv.o(.text) for __aeabi_fdiv
    gps.o(i.GPS_bearing) refers to ffixi.o(.text) for __aeabi_f2iz
    gps.o(i.GPS_bearing) refers to dflti.o(.text) for __aeabi_i2d
    gps.o(i.GPS_bearing) refers to f2d.o(.text) for __aeabi_f2d
    gps.o(i.GPS_bearing) refers to atan2.o(i.atan2) for atan2
    gps.o(i.GPS_bearing) refers to dmul.o(.text) for __aeabi_dmul
    gps.o(i.GPS_bearing) refers to dadd.o(.text) for __aeabi_dadd
    gps.o(i.GPS_bearing) refers to dfixi.o(.text) for __aeabi_d2iz
    gps.o(i.GPS_bearing) refers to gps.o(.data) for GPS_scaleLonDown
    gps.o(i.GPS_calc_desired_speed) refers to f2d.o(.text) for __aeabi_f2d
    gps.o(i.GPS_calc_desired_speed) refers to dmul.o(.text) for __aeabi_dmul
    gps.o(i.GPS_calc_desired_speed) refers to dfixi.o(.text) for __aeabi_d2iz
    gps.o(i.GPS_calc_desired_speed) refers to gps.o(.data) for wp_distance
    gps.o(i.GPS_calc_desired_speed) refers to multiwii.o(.bss) for GPS_conf
    gps.o(i.GPS_calc_location_error) refers to fflti.o(.text) for __aeabi_i2f
    gps.o(i.GPS_calc_location_error) refers to fmul.o(.text) for __aeabi_fmul
    gps.o(i.GPS_calc_location_error) refers to ffixi.o(.text) for __aeabi_f2iz
    gps.o(i.GPS_calc_location_error) refers to gps.o(.data) for GPS_scaleLonDown
    gps.o(i.GPS_calc_longitude_scaling) refers to fflti.o(.text) for __aeabi_i2f
    gps.o(i.GPS_calc_longitude_scaling) refers to fmul.o(.text) for __aeabi_fmul
    gps.o(i.GPS_calc_longitude_scaling) refers to f2d.o(.text) for __aeabi_f2d
    gps.o(i.GPS_calc_longitude_scaling) refers to cos.o(i.cos) for cos
    gps.o(i.GPS_calc_longitude_scaling) refers to d2f.o(.text) for __aeabi_d2f
    gps.o(i.GPS_calc_longitude_scaling) refers to gps.o(.data) for GPS_scaleLonDown
    gps.o(i.GPS_calc_nav_rate) refers to gps.o(i.GPS_update_crosstrack) for GPS_update_crosstrack
    gps.o(i.GPS_calc_nav_rate) refers to dfltui.o(.text) for __aeabi_ui2d
    gps.o(i.GPS_calc_nav_rate) refers to ddiv.o(.text) for __aeabi_ddiv
    gps.o(i.GPS_calc_nav_rate) refers to dflti.o(.text) for __aeabi_i2d
    gps.o(i.GPS_calc_nav_rate) refers to dmul.o(.text) for __aeabi_dmul
    gps.o(i.GPS_calc_nav_rate) refers to dfixi.o(.text) for __aeabi_d2iz
    gps.o(i.GPS_calc_nav_rate) refers to fflti.o(.text) for __aeabi_i2f
    gps.o(i.GPS_calc_nav_rate) refers to fmul.o(.text) for __aeabi_fmul
    gps.o(i.GPS_calc_nav_rate) refers to f2d.o(.text) for __aeabi_f2d
    gps.o(i.GPS_calc_nav_rate) refers to cos.o(i.cos) for cos
    gps.o(i.GPS_calc_nav_rate) refers to d2f.o(.text) for __aeabi_d2f
    gps.o(i.GPS_calc_nav_rate) refers to sin.o(i.sin) for sin
    gps.o(i.GPS_calc_nav_rate) refers to ffltui.o(.text) for __aeabi_ui2f
    gps.o(i.GPS_calc_nav_rate) refers to fadd.o(.text) for __aeabi_fsub
    gps.o(i.GPS_calc_nav_rate) refers to ffixi.o(.text) for __aeabi_f2iz
    gps.o(i.GPS_calc_nav_rate) refers to gps.o(i.get_P) for get_P
    gps.o(i.GPS_calc_nav_rate) refers to gps.o(i.get_I) for get_I
    gps.o(i.GPS_calc_nav_rate) refers to gps.o(i.get_D) for get_D
    gps.o(i.GPS_calc_nav_rate) refers to gps.o(i.constrain_int16) for constrain_int16
    gps.o(i.GPS_calc_nav_rate) refers to multiwii.o(.bss) for GPS_conf
    gps.o(i.GPS_calc_nav_rate) refers to gps.o(.data) for crosstrack_error
    gps.o(i.GPS_calc_nav_rate) refers to gps.o(.bss) for navPID_PARAM
    gps.o(i.GPS_calc_nav_rate) refers to multiwii.o(.data) for nav
    gps.o(i.GPS_calc_poshold) refers to gps.o(i.GPS_update_crosstrack) for GPS_update_crosstrack
    gps.o(i.GPS_calc_poshold) refers to gps.o(i.get_P) for get_P
    gps.o(i.GPS_calc_poshold) refers to gps.o(i.get_I) for get_I
    gps.o(i.GPS_calc_poshold) refers to gps.o(i.get_D) for get_D
    gps.o(i.GPS_calc_poshold) refers to gps.o(i.constrain_int16) for constrain_int16
    gps.o(i.GPS_calc_poshold) refers to gps.o(.data) for error
    gps.o(i.GPS_calc_poshold) refers to gps.o(.bss) for posholdPID_PARAM
    gps.o(i.GPS_calc_poshold) refers to multiwii.o(.data) for nav
    gps.o(i.GPS_calc_poshold) refers to multiwii.o(.bss) for GPS_conf
    gps.o(i.GPS_calc_velocity) refers to f2d.o(.text) for __aeabi_f2d
    gps.o(i.GPS_calc_velocity) refers to ddiv.o(.text) for __aeabi_ddiv
    gps.o(i.GPS_calc_velocity) refers to d2f.o(.text) for __aeabi_d2f
    gps.o(i.GPS_calc_velocity) refers to fflti.o(.text) for __aeabi_i2f
    gps.o(i.GPS_calc_velocity) refers to fmul.o(.text) for __aeabi_fmul
    gps.o(i.GPS_calc_velocity) refers to ffixi.o(.text) for __aeabi_f2iz
    gps.o(i.GPS_calc_velocity) refers to gps.o(i.get_position) for get_position
    gps.o(i.GPS_calc_velocity) refers to gps.o(.data) for init
    gps.o(i.GPS_calc_velocity) refers to multiwii.o(.data) for GPS_coord
    gps.o(i.GPS_calc_velocity) refers to multiwii.o(.bss) for GPS_conf
    gps.o(i.GPS_coord_to_degrees) refers to ctype_o.o(.text) for __rt_ctype_table
    gps.o(i.GPS_distance_cm) refers to fflti.o(.text) for __aeabi_i2f
    gps.o(i.GPS_distance_cm) refers to fmul.o(.text) for __aeabi_fmul
    gps.o(i.GPS_distance_cm) refers to fadd.o(.text) for __aeabi_fadd
    gps.o(i.GPS_distance_cm) refers to f2d.o(.text) for __aeabi_f2d
    gps.o(i.GPS_distance_cm) refers to sqrt.o(i.sqrt) for sqrt
    gps.o(i.GPS_distance_cm) refers to dmul.o(.text) for __aeabi_dmul
    gps.o(i.GPS_distance_cm) refers to dfixui.o(.text) for __aeabi_d2uiz
    gps.o(i.GPS_distance_cm) refers to gps.o(.data) for GPS_scaleLonDown
    gps.o(i.GPS_newFrame) refers to gps.o(.data) for _step
    gps.o(i.GPS_newFrame) refers to gps.o(.bss) for _buffer
    gps.o(i.GPS_newFrame) refers to multiwii.o(.data) for f
    gps.o(i.GPS_reset_home_position) refers to gps.o(i.GPS_calc_longitude_scaling) for GPS_calc_longitude_scaling
    gps.o(i.GPS_reset_home_position) refers to multiwii.o(.data) for f
    gps.o(i.GPS_reset_home_position) refers to gps.o(.data) for nav_takeoff_bearing
    gps.o(i.GPS_reset_nav) refers to gps.o(i.reset_PID) for reset_PID
    gps.o(i.GPS_reset_nav) refers to multiwii.o(.data) for nav
    gps.o(i.GPS_reset_nav) refers to gps.o(.bss) for posholdPID
    gps.o(i.GPS_reset_nav) refers to multiwii.o(.bss) for mission_step
    gps.o(i.GPS_reset_nav) refers to gps.o(.data) for target_bearing
    gps.o(i.GPS_set_next_wp) refers to gps.o(i.GPS_calc_longitude_scaling) for GPS_calc_longitude_scaling
    gps.o(i.GPS_set_next_wp) refers to ffltui.o(.text) for __aeabi_ui2f
    gps.o(i.GPS_set_next_wp) refers to fdiv.o(.text) for __aeabi_fdiv
    gps.o(i.GPS_set_next_wp) refers to fmul.o(.text) for __aeabi_fmul
    gps.o(i.GPS_set_next_wp) refers to fflti.o(.text) for __aeabi_i2f
    gps.o(i.GPS_set_next_wp) refers to f2d.o(.text) for __aeabi_f2d
    gps.o(i.GPS_set_next_wp) refers to cos.o(i.cos) for cos
    gps.o(i.GPS_set_next_wp) refers to d2f.o(.text) for __aeabi_d2f
    gps.o(i.GPS_set_next_wp) refers to sin.o(i.sin) for sin
    gps.o(i.GPS_set_next_wp) refers to dmul.o(.text) for __aeabi_dmul
    gps.o(i.GPS_set_next_wp) refers to fadd.o(.text) for __aeabi_fadd
    gps.o(i.GPS_set_next_wp) refers to ffixi.o(.text) for __aeabi_f2iz
    gps.o(i.GPS_set_next_wp) refers to gps.o(i.GPS_bearing) for GPS_bearing
    gps.o(i.GPS_set_next_wp) refers to gps.o(i.GPS_distance_cm) for GPS_distance_cm
    gps.o(i.GPS_set_next_wp) refers to gps.o(i.clearNav) for clearNav
    gps.o(i.GPS_set_next_wp) refers to gps.o(.data) for GPS_WP
    gps.o(i.GPS_set_next_wp) refers to multiwii.o(.data) for f
    gps.o(i.GPS_set_next_wp) refers to multiwii.o(.bss) for GPS_conf
    gps.o(i.GPS_set_pids) refers to ffltui.o(.text) for __aeabi_ui2f
    gps.o(i.GPS_set_pids) refers to f2d.o(.text) for __aeabi_f2d
    gps.o(i.GPS_set_pids) refers to ddiv.o(.text) for __aeabi_ddiv
    gps.o(i.GPS_set_pids) refers to d2f.o(.text) for __aeabi_d2f
    gps.o(i.GPS_set_pids) refers to multiwii.o(.bss) for conf
    gps.o(i.GPS_set_pids) refers to gps.o(.bss) for posholdPID_PARAM
    gps.o(i.GPS_update_crosstrack) refers to gps.o(i.wrap_36000) for wrap_36000
    gps.o(i.GPS_update_crosstrack) refers to multiwii.o(.bss) for mission_step
    gps.o(i.GPS_update_crosstrack) refers to multiwii.o(.data) for f
    gps.o(i.GPS_update_crosstrack) refers to gps.o(.data) for POI_flag
    gps.o(i.abort_mission) refers to gps.o(i.GPS_set_next_wp) for GPS_set_next_wp
    gps.o(i.abort_mission) refers to multiwii.o(.data) for GPS_coord
    gps.o(i.check_land) refers to multiwii.o(.bss) for alt
    gps.o(i.check_land) refers to multiwii.o(.data) for BaroPID
    gps.o(i.check_land) refers to gps.o(.data) for land_detect
    gps.o(i.check_missed_wp) refers to gps.o(i.wrap_18000) for wrap_18000
    gps.o(i.check_missed_wp) refers to gps.o(.data) for target_bearing
    gps.o(i.clearNav) refers to gps.o(.data) for NaverrorI
    gps.o(i.clearNav) refers to gps.o(.bss) for AltHist
    gps.o(i.clear_new_altitude) refers to multiwii.o(.data) for alt_change_flag
    gps.o(i.force_new_altitude) refers to multiwii.o(.data) for alt_to_hold
    gps.o(i.get_D) refers to fflti.o(.text) for __aeabi_i2f
    gps.o(i.get_D) refers to fdiv.o(.text) for __aeabi_fdiv
    gps.o(i.get_D) refers to fadd.o(.text) for __aeabi_fsub
    gps.o(i.get_D) refers to fmul.o(.text) for __aeabi_fmul
    gps.o(i.get_D) refers to ffixi.o(.text) for __aeabi_f2iz
    gps.o(i.get_I) refers to fflti.o(.text) for __aeabi_i2f
    gps.o(i.get_I) refers to fmul.o(.text) for __aeabi_fmul
    gps.o(i.get_I) refers to fadd.o(.text) for __aeabi_fadd
    gps.o(i.get_I) refers to cfrcmple.o(.text) for __aeabi_cfrcmple
    gps.o(i.get_I) refers to ffixi.o(.text) for __aeabi_f2iz
    gps.o(i.get_P) refers to fflti.o(.text) for __aeabi_i2f
    gps.o(i.get_P) refers to fmul.o(.text) for __aeabi_fmul
    gps.o(i.get_P) refers to ffixi.o(.text) for __aeabi_f2iz
    gps.o(i.get_altitude_error) refers to multiwii.o(.bss) for alt
    gps.o(i.get_altitude_error) refers to multiwii.o(.data) for alt_to_hold
    gps.o(i.get_new_altitude) refers to timer.o(i.millis) for millis
    gps.o(i.get_new_altitude) refers to llushr.o(.text) for __aeabi_llsr
    gps.o(i.get_new_altitude) refers to multiwii.o(.data) for alt_change_flag
    gps.o(i.get_new_altitude) refers to multiwii.o(.bss) for alt
    gps.o(i.get_position) refers to fflti.o(.text) for __aeabi_i2f
    gps.o(i.get_position) refers to fmul.o(.text) for __aeabi_fmul
    gps.o(i.get_position) refers to ffixi.o(.text) for __aeabi_f2iz
    gps.o(i.get_position) refers to gps.o(.data) for _last_velocity_1
    gps.o(i.init_RTH) refers to gps.o(i.GPS_set_next_wp) for GPS_set_next_wp
    gps.o(i.init_RTH) refers to gps.o(i.set_new_altitude) for set_new_altitude
    gps.o(i.init_RTH) refers to multiwii.o(.data) for f
    gps.o(i.init_RTH) refers to multiwii.o(.bss) for GPS_conf
    gps.o(i.set_new_altitude) refers to gps.o(i.force_new_altitude) for force_new_altitude
    imu.o(i.InvSqrt) refers to fmul.o(.text) for __aeabi_fmul
    imu.o(i.InvSqrt) refers to fadd.o(.text) for __aeabi_frsub
    imu.o(i._atan2) refers to fflti.o(.text) for __aeabi_i2f
    imu.o(i._atan2) refers to fdiv.o(.text) for __aeabi_fdiv
    imu.o(i._atan2) refers to fmul.o(.text) for __aeabi_fmul
    imu.o(i._atan2) refers to f2d.o(.text) for __aeabi_f2d
    imu.o(i._atan2) refers to dadd.o(.text) for __aeabi_dadd
    imu.o(i._atan2) refers to ddiv.o(.text) for __aeabi_ddiv
    imu.o(i._atan2) refers to dmul.o(.text) for __aeabi_dmul
    imu.o(i._atan2) refers to dfixi.o(.text) for __aeabi_d2iz
    imu.o(i.computeIMU) refers to sensors.o(i.ACC_getADC) for ACC_getADC
    imu.o(i.computeIMU) refers to imu.o(i.getEstimatedAttitude) for getEstimatedAttitude
    imu.o(i.computeIMU) refers to sensors.o(i.Gyro_getADC) for Gyro_getADC
    imu.o(i.computeIMU) refers to timer.o(i.micros) for micros
    imu.o(i.computeIMU) refers to multiwii.o(i.annexCode) for annexCode
    imu.o(i.computeIMU) refers to multiwii.o(.bss) for imu
    imu.o(i.computeIMU) refers to imu.o(.data) for gyroADCinter
    imu.o(i.getEstimatedAttitude) refers to timer.o(i.micros) for micros
    imu.o(i.getEstimatedAttitude) refers to dfltui.o(.text) for __aeabi_ui2d
    imu.o(i.getEstimatedAttitude) refers to dmul.o(.text) for __aeabi_dmul
    imu.o(i.getEstimatedAttitude) refers to d2f.o(.text) for __aeabi_d2f
    imu.o(i.getEstimatedAttitude) refers to imu.o(i.mul) for mul
    imu.o(i.getEstimatedAttitude) refers to cfcmple.o(.text) for __aeabi_cfcmple
    imu.o(i.getEstimatedAttitude) refers to fflti.o(.text) for __aeabi_i2f
    imu.o(i.getEstimatedAttitude) refers to fmul.o(.text) for __aeabi_fmul
    imu.o(i.getEstimatedAttitude) refers to ffixi.o(.text) for __aeabi_f2iz
    imu.o(i.getEstimatedAttitude) refers to dflti.o(.text) for __aeabi_i2d
    imu.o(i.getEstimatedAttitude) refers to dfixi.o(.text) for __aeabi_d2iz
    imu.o(i.getEstimatedAttitude) refers to imu.o(i.rotateV32) for rotateV32
    imu.o(i.getEstimatedAttitude) refers to imu.o(i.InvSqrt) for InvSqrt
    imu.o(i.getEstimatedAttitude) refers to imu.o(i._atan2) for _atan2
    imu.o(i.getEstimatedAttitude) refers to imu.o(.data) for currentT_getEstimatedAttitude
    imu.o(i.getEstimatedAttitude) refers to imu.o(.bss) for LPFAcc
    imu.o(i.getEstimatedAttitude) refers to multiwii.o(.bss) for imu
    imu.o(i.getEstimatedAttitude) refers to multiwii.o(.data) for f
    imu.o(i.rotateV32) refers to imu.o(i.mul) for mul
    protocol.o(i.SerialWrite16) refers to protocol.o(i.serialize16) for serialize16
    protocol.o(i.SerialWrite16) refers to serial.o(i.UartSendData) for UartSendData
    protocol.o(i.SerialWrite16) refers to protocol.o(.data) for CURRENTPORT
    protocol.o(i.evaluateCommand) refers to protocol.o(i.headSerialError) for headSerialError
    protocol.o(i.evaluateCommand) refers to protocol.o(i.tailSerialReply) for tailSerialReply
    protocol.o(i.evaluateCommand) refers to protocol.o(i.s_struct_w) for s_struct_w
    protocol.o(i.evaluateCommand) refers to protocol.o(i.mspAck) for mspAck
    protocol.o(i.evaluateCommand) refers to protocol.o(i.s_struct) for s_struct
    protocol.o(i.evaluateCommand) refers to protocol.o(i.headSerialReply) for headSerialReply
    protocol.o(i.evaluateCommand) refers to protocol.o(i.serialize16) for serialize16
    protocol.o(i.evaluateCommand) refers to protocol.o(i.serialize8) for serialize8
    protocol.o(i.evaluateCommand) refers to protocol.o(i.read16) for read16
    protocol.o(i.evaluateCommand) refers to protocol.o(i.read8) for read8
    protocol.o(i.evaluateCommand) refers to protocol.o(i.s_struct_partial) for s_struct_partial
    protocol.o(i.evaluateCommand) refers to multiwii.o(.bss) for rcSerial
    protocol.o(i.evaluateCommand) refers to multiwii.o(.data) for rcSerialCount
    protocol.o(i.evaluateCommand) refers to protocol.o(.bss) for set_misc
    protocol.o(i.evaluateCommand) refers to protocol.o(.data) for id
    protocol.o(i.evaluateCommand) refers to protocol.o(i.serialize32) for serialize32
    protocol.o(i.evaluateCommand) refers to eeprom.o(i.recallWP) for recallWP
    protocol.o(i.evaluateCommand) refers to protocol.o(i.read32) for read32
    protocol.o(i.evaluateCommand) refers to gps.o(i.set_new_altitude) for set_new_altitude
    protocol.o(i.evaluateCommand) refers to gps.o(i.GPS_set_next_wp) for GPS_set_next_wp
    protocol.o(i.evaluateCommand) refers to gps.o(.data) for target_bearing
    protocol.o(i.evaluateCommand) refers to eeprom.o(i.getMaxWPNumber) for getMaxWPNumber
    protocol.o(i.evaluateCommand) refers to eeprom.o(i.storeWP) for storeWP
    protocol.o(i.evaluateCommand) refers to protocol.o(i.serializeNames) for serializeNames
    protocol.o(i.evaluateCommand) refers to protocol.o(i.pgm_read_byte_near) for pgm_read_byte_near
    protocol.o(i.evaluateCommand) refers to eeprom.o(i.LoadDefaults) for LoadDefaults
    protocol.o(i.evaluateCommand) refers to eeprom.o(i.writeParams) for writeParams
    protocol.o(i.evaluateCommand) refers to multiwii.o(.constdata) for pidnames
    protocol.o(i.evaluateCommand) refers to output.o(.data) for PWM_PIN
    protocol.o(i.evaluateOtherData) refers to protocol.o(.data) for CURRENTPORT
    protocol.o(i.headSerialError) refers to protocol.o(i.headSerialResponse) for headSerialResponse
    protocol.o(i.headSerialReply) refers to protocol.o(i.headSerialResponse) for headSerialResponse
    protocol.o(i.headSerialResponse) refers to protocol.o(i.serialize8) for serialize8
    protocol.o(i.headSerialResponse) refers to protocol.o(.data) for checksum
    protocol.o(i.mspAck) refers to protocol.o(i.headSerialReply) for headSerialReply
    protocol.o(i.mspAck) refers to protocol.o(i.tailSerialReply) for tailSerialReply
    protocol.o(i.read16) refers to protocol.o(i.read8) for read8
    protocol.o(i.read32) refers to protocol.o(i.read16) for read16
    protocol.o(i.read8) refers to protocol.o(.data) for indRX
    protocol.o(i.read8) refers to protocol.o(.bss) for inBuf
    protocol.o(i.s_struct) refers to protocol.o(i.headSerialReply) for headSerialReply
    protocol.o(i.s_struct) refers to protocol.o(i.s_struct_partial) for s_struct_partial
    protocol.o(i.s_struct) refers to protocol.o(i.tailSerialReply) for tailSerialReply
    protocol.o(i.s_struct_partial) refers to protocol.o(i.serialize8) for serialize8
    protocol.o(i.s_struct_w) refers to protocol.o(i.read8) for read8
    protocol.o(i.serialCom) refers to timer.o(i.micros) for micros
    protocol.o(i.serialCom) refers to serial.o(i.SerialAvailable) for SerialAvailable
    protocol.o(i.serialCom) refers to serial.o(i.SerialRead) for SerialRead
    protocol.o(i.serialCom) refers to serial.o(i.SerialUsedTXBuff) for SerialUsedTXBuff
    protocol.o(i.serialCom) refers to protocol.o(i.evaluateOtherData) for evaluateOtherData
    protocol.o(i.serialCom) refers to protocol.o(i.evaluateCommand) for evaluateCommand
    protocol.o(i.serialCom) refers to gps.o(i.GPS_newFrame) for GPS_newFrame
    protocol.o(i.serialCom) refers to protocol.o(.data) for CURRENTPORT
    protocol.o(i.serialCom) refers to protocol.o(.bss) for inBuf
    protocol.o(i.serialCom) refers to gps.o(.data) for GPS_Frame
    protocol.o(i.serialCom) refers to multiwii.o(.data) for GPS_update
    protocol.o(i.serialize16) refers to protocol.o(i.serialize8) for serialize8
    protocol.o(i.serialize32) refers to protocol.o(i.serialize8) for serialize8
    protocol.o(i.serialize8) refers to serial.o(i.SerialSerialize) for SerialSerialize
    protocol.o(i.serialize8) refers to protocol.o(.data) for CURRENTPORT
    protocol.o(i.serializeNames) refers to protocol.o(i.strlen_P) for strlen_P
    protocol.o(i.serializeNames) refers to protocol.o(i.headSerialReply) for headSerialReply
    protocol.o(i.serializeNames) refers to protocol.o(i.pgm_read_byte_near) for pgm_read_byte_near
    protocol.o(i.serializeNames) refers to protocol.o(i.serialize8) for serialize8
    protocol.o(i.serializeNames) refers to protocol.o(i.tailSerialReply) for tailSerialReply
    protocol.o(i.tailSerialReply) refers to protocol.o(i.serialize8) for serialize8
    protocol.o(i.tailSerialReply) refers to serial.o(i.UartSendData) for UartSendData
    protocol.o(i.tailSerialReply) refers to protocol.o(.data) for checksum
    multiwii.o(i.LED_init) refers to delay.o(i.delay_ms) for delay_ms
    multiwii.o(i.annexCode) refers to stm32f10x_gpio.o(i.GPIO_SetBits) for GPIO_SetBits
    multiwii.o(i.annexCode) refers to stm32f10x_gpio.o(i.GPIO_ResetBits) for GPIO_ResetBits
    multiwii.o(i.annexCode) refers to protocol.o(i.serialCom) for serialCom
    multiwii.o(i.annexCode) refers to multiwii.o(.bss) for rcData
    multiwii.o(i.annexCode) refers to multiwii.o(.data) for rcCommand
    multiwii.o(i.cam_roll) refers to dflti.o(.text) for __aeabi_i2d
    multiwii.o(i.cam_roll) refers to dmul.o(.text) for __aeabi_dmul
    multiwii.o(i.cam_roll) refers to dadd.o(.text) for __aeabi_dadd
    multiwii.o(i.cam_roll) refers to cdcmple.o(.text) for __aeabi_cdcmple
    multiwii.o(i.cam_roll) refers to cdrcmple.o(.text) for __aeabi_cdrcmple
    multiwii.o(i.cam_roll) refers to dfixi.o(.text) for __aeabi_d2iz
    multiwii.o(i.cam_roll) refers to multiwii.o(.data) for att
    multiwii.o(i.go_arm) refers to alarms.o(i.blinkLED) for blinkLED
    multiwii.o(i.go_arm) refers to multiwii.o(.data) for calibratingG
    multiwii.o(i.go_arm) refers to multiwii.o(.bss) for alarmArray
    multiwii.o(i.go_disarm) refers to multiwii.o(.data) for f
    multiwii.o(i.loop) refers to rx.o(i.computeRC) for computeRC
    multiwii.o(i.loop) refers to multiwii.o(i.go_arm) for go_arm
    multiwii.o(i.loop) refers to multiwii.o(i.go_disarm) for go_disarm
    multiwii.o(i.loop) refers to gps.o(i.GPS_reset_home_position) for GPS_reset_home_position
    multiwii.o(i.loop) refers to timer.o(i.micros) for micros
    multiwii.o(i.loop) refers to eeprom.o(i.writeParams) for writeParams
    multiwii.o(i.loop) refers to multiwii.o(.data) for currentTime
    multiwii.o(i.loop) refers to multiwii.o(.bss) for rcData
    multiwii.o(i.loop) refers to gps.o(i.init_RTH) for init_RTH
    multiwii.o(i.loop) refers to gps.o(i.clearNav) for clearNav
    multiwii.o(i.loop) refers to gps.o(i.GPS_set_next_wp) for GPS_set_next_wp
    multiwii.o(i.loop) refers to gps.o(i.set_new_altitude) for set_new_altitude
    multiwii.o(i.loop) refers to gps.o(i.GPS_reset_nav) for GPS_reset_nav
    multiwii.o(i.loop) refers to sensors.o(i.Mag_getADC) for Mag_getADC
    multiwii.o(i.loop) refers to gps.o(i.GPS_Compute) for GPS_Compute
    multiwii.o(i.loop) refers to gps.o(.data) for user_mission_dorp
    multiwii.o(i.loop) refers to imu.o(i.computeIMU) for computeIMU
    multiwii.o(i.loop) refers to gps.o(i.FW_NAV) for FW_NAV
    multiwii.o(i.loop) refers to output.o(i.mixTable) for mixTable
    multiwii.o(i.loop) refers to output.o(i.writeServos) for writeServos
    multiwii.o(i.loop) refers to output.o(i.writeMotors) for writeMotors
    multiwii.o(i.main) refers to sys.o(i.Stm32_Clock_Init) for Stm32_Clock_Init
    multiwii.o(i.main) refers to sys.o(i.JTAG_Set) for JTAG_Set
    multiwii.o(i.main) refers to usb_ch341.o(i.USB_CH341_Init) for USB_CH341_Init
    multiwii.o(i.main) refers to multiwii.o(i.GPIO_Configuration) for GPIO_Configuration
    multiwii.o(i.main) refers to gy_86.o(i.I2C_GPIO_Config) for I2C_GPIO_Config
    multiwii.o(i.main) refers to re_eeprom.o(i.EEPROM_I2C_GPIO_Config) for EEPROM_I2C_GPIO_Config
    multiwii.o(i.main) refers to delay.o(i.delay_ms) for delay_ms
    multiwii.o(i.main) refers to re_eeprom.o(i.AT24CXX_Check) for AT24CXX_Check
    multiwii.o(i.main) refers to multiwii.o(i.LED_init) for LED_init
    multiwii.o(i.main) refers to usart.o(i.uart_init) for uart_init
    multiwii.o(i.main) refers to usart.o(i.USART2_Configuration) for USART2_Configuration
    multiwii.o(i.main) refers to usart.o(i.USART3_Configuration) for USART3_Configuration
    multiwii.o(i.main) refers to multiwii.o(i.setup) for setup
    multiwii.o(i.main) refers to multiwii.o(i.loop) for loop
    multiwii.o(i.setup) refers to output.o(i.initOutput) for initOutput
    multiwii.o(i.setup) refers to eeprom.o(i.readGlobalSet) for readGlobalSet
    multiwii.o(i.setup) refers to eeprom.o(i.readEEPROM) for readEEPROM
    multiwii.o(i.setup) refers to alarms.o(i.blinkLED) for blinkLED
    multiwii.o(i.setup) refers to eeprom.o(i.recallGPSconf) for recallGPSconf
    multiwii.o(i.setup) refers to rx.o(i.configureReceiver) for configureReceiver
    multiwii.o(i.setup) refers to sensors.o(i.initSensors) for initSensors
    multiwii.o(i.setup) refers to gps.o(i.GPS_set_pids) for GPS_set_pids
    multiwii.o(i.setup) refers to timer.o(i.micros) for micros
    multiwii.o(i.setup) refers to eeprom.o(i.getMaxWPNumber) for getMaxWPNumber
    multiwii.o(i.setup) refers to multiwii.o(.bss) for global_conf
    multiwii.o(i.setup) refers to multiwii.o(.data) for previousTime
    output.o(i.get_middle) refers to multiwii.o(.bss) for conf
    output.o(i.initOutput) refers to timer.o(i.TIM3_PWM_Init) for TIM3_PWM_Init
    output.o(i.initOutput) refers to timer.o(i.TIM4_PWM_Init) for TIM4_PWM_Init
    output.o(i.initOutput) refers to output.o(i.writeAllMotors) for writeAllMotors
    output.o(i.initOutput) refers to output.o(i.initializeServo) for initializeServo
    output.o(i.initOutput) refers to multiwii.o(.bss) for rcData
    output.o(i.mixTable) refers to output.o(i.get_middle) for get_middle
    output.o(i.mixTable) refers to output.o(i.map) for map
    output.o(i.mixTable) refers to multiwii.o(.data) for f
    output.o(i.mixTable) refers to multiwii.o(.bss) for conf
    output.o(i.mixTable) refers to gps.o(.data) for servo5
    output.o(i.writeAllMotors) refers to output.o(i.writeMotors) for writeMotors
    output.o(i.writeAllMotors) refers to multiwii.o(.bss) for motor
    output.o(i.writeMotors) refers to stm32f10x_tim.o(i.TIM_SetCompare1) for TIM_SetCompare1
    output.o(i.writeMotors) refers to stm32f10x_tim.o(i.TIM_SetCompare2) for TIM_SetCompare2
    output.o(i.writeMotors) refers to multiwii.o(.bss) for motor
    output.o(i.writeServos) refers to multiwii.o(.data) for servo
    sensors.o(i.ACC_Common) refers to eeprom.o(i.writeGlobalSet) for writeGlobalSet
    sensors.o(i.ACC_Common) refers to multiwii.o(.data) for calibratingA
    sensors.o(i.ACC_Common) refers to multiwii.o(.bss) for imu
    sensors.o(i.ACC_Common) refers to sensors.o(.data) for curAxis
    sensors.o(i.ACC_Common) refers to sensors.o(.bss) for a
    sensors.o(i.ACC_getADC) refers to sensors.o(i.i2c_getSixRawADC) for i2c_getSixRawADC
    sensors.o(i.ACC_getADC) refers to sensors.o(i.ACC_Common) for ACC_Common
    sensors.o(i.ACC_getADC) refers to sensors.o(.data) for rawADC
    sensors.o(i.ACC_getADC) refers to multiwii.o(.bss) for imu
    sensors.o(i.ACC_init) refers to sensors.o(i.i2c_writeReg) for i2c_writeReg
    sensors.o(i.Device_Mag_getADC) refers to sensors.o(i.i2c_getSixRawADC) for i2c_getSixRawADC
    sensors.o(i.Device_Mag_getADC) refers to sensors.o(i.i2c_writeReg) for i2c_writeReg
    sensors.o(i.Device_Mag_getADC) refers to sensors.o(.data) for rawADC
    sensors.o(i.Device_Mag_getADC) refers to multiwii.o(.bss) for imu
    sensors.o(i.GYRO_Common) refers to multiwii.o(.data) for calibratingG
    sensors.o(i.GYRO_Common) refers to sensors.o(.bss) for g
    sensors.o(i.GYRO_Common) refers to multiwii.o(.bss) for imu
    sensors.o(i.GYRO_Common) refers to sensors.o(.data) for previousGyroADC
    sensors.o(i.Gyro_getADC) refers to sensors.o(i.i2c_getSixRawADC) for i2c_getSixRawADC
    sensors.o(i.Gyro_getADC) refers to sensors.o(i.GYRO_Common) for GYRO_Common
    sensors.o(i.Gyro_getADC) refers to sensors.o(.data) for rawADC
    sensors.o(i.Gyro_getADC) refers to multiwii.o(.bss) for imu
    sensors.o(i.Gyro_init) refers to sensors.o(i.i2c_writeReg) for i2c_writeReg
    sensors.o(i.Gyro_init) refers to delay.o(i.delay) for delay
    sensors.o(i.Mag_getADC) refers to sensors.o(i.Device_Mag_getADC) for Device_Mag_getADC
    sensors.o(i.Mag_getADC) refers to fflti.o(.text) for __aeabi_i2f
    sensors.o(i.Mag_getADC) refers to fmul.o(.text) for __aeabi_fmul
    sensors.o(i.Mag_getADC) refers to ffixi.o(.text) for __aeabi_f2iz
    sensors.o(i.Mag_getADC) refers to eeprom.o(i.writeGlobalSet) for writeGlobalSet
    sensors.o(i.Mag_getADC) refers to multiwii.o(.data) for currentTime
    sensors.o(i.Mag_getADC) refers to sensors.o(.data) for t
    sensors.o(i.Mag_getADC) refers to multiwii.o(.bss) for imu
    sensors.o(i.Mag_init) refers to delay.o(i.delay) for delay
    sensors.o(i.Mag_init) refers to sensors.o(i.i2c_writeReg) for i2c_writeReg
    sensors.o(i.i2c_getSixRawADC) refers to sensors.o(i.i2c_read_reg_to_buf) for i2c_read_reg_to_buf
    sensors.o(i.i2c_getSixRawADC) refers to sensors.o(.data) for rawADC
    sensors.o(i.i2c_init) refers to gy_86.o(i.I2C_GPIO_Config) for I2C_GPIO_Config
    sensors.o(i.i2c_init) refers to multiwii.o(.data) for i2c_errors_count
    sensors.o(i.i2c_readAck) refers to gy_86.o(i.I2C_RecvByte) for I2C_RecvByte
    sensors.o(i.i2c_readAck) refers to gy_86.o(i.I2C_SendACK) for I2C_SendACK
    sensors.o(i.i2c_readNak) refers to gy_86.o(i.I2C_RecvByte) for I2C_RecvByte
    sensors.o(i.i2c_readNak) refers to gy_86.o(i.I2C_SendACK) for I2C_SendACK
    sensors.o(i.i2c_readNak) refers to gy_86.o(i.I2C_Stop) for I2C_Stop
    sensors.o(i.i2c_readReg) refers to sensors.o(i.i2c_read_reg_to_buf) for i2c_read_reg_to_buf
    sensors.o(i.i2c_read_reg_to_buf) refers to gy_86.o(i.I2C_Start) for I2C_Start
    sensors.o(i.i2c_read_reg_to_buf) refers to gy_86.o(i.I2C_SendByte) for I2C_SendByte
    sensors.o(i.i2c_read_reg_to_buf) refers to gy_86.o(i.I2C_WaitAck) for I2C_WaitAck
    sensors.o(i.i2c_read_reg_to_buf) refers to gy_86.o(i.I2C_Stop) for I2C_Stop
    sensors.o(i.i2c_read_reg_to_buf) refers to sensors.o(i.i2c_readAck) for i2c_readAck
    sensors.o(i.i2c_read_reg_to_buf) refers to sensors.o(i.i2c_readNak) for i2c_readNak
    sensors.o(i.i2c_read_reg_to_buf) refers to multiwii.o(.data) for i2c_errors_count
    sensors.o(i.i2c_rep_start) refers to gy_86.o(i.I2C_Start) for I2C_Start
    sensors.o(i.i2c_rep_start) refers to gy_86.o(i.I2C_SendByte) for I2C_SendByte
    sensors.o(i.i2c_rep_start) refers to gy_86.o(i.I2C_WaitAck) for I2C_WaitAck
    sensors.o(i.i2c_rep_start) refers to gy_86.o(i.I2C_Stop) for I2C_Stop
    sensors.o(i.i2c_rep_start) refers to multiwii.o(.data) for i2c_errors_count
    sensors.o(i.i2c_stop) refers to gy_86.o(i.I2C_Stop) for I2C_Stop
    sensors.o(i.i2c_write) refers to gy_86.o(i.I2C_SendByte) for I2C_SendByte
    sensors.o(i.i2c_write) refers to gy_86.o(i.I2C_WaitAck) for I2C_WaitAck
    sensors.o(i.i2c_write) refers to gy_86.o(i.I2C_Stop) for I2C_Stop
    sensors.o(i.i2c_write) refers to multiwii.o(.data) for i2c_errors_count
    sensors.o(i.i2c_writeReg) refers to gy_86.o(i.Single_WriteI2C) for Single_WriteI2C
    sensors.o(i.i2c_writeReg) refers to multiwii.o(.data) for i2c_errors_count
    sensors.o(i.initS) refers to sensors.o(i.i2c_init) for i2c_init
    sensors.o(i.initS) refers to sensors.o(i.Gyro_init) for Gyro_init
    sensors.o(i.initS) refers to sensors.o(i.Mag_init) for Mag_init
    sensors.o(i.initS) refers to sensors.o(i.ACC_init) for ACC_init
    sensors.o(i.initSensors) refers to sensors.o(i.initS) for initS
    sensors.o(i.initSensors) refers to multiwii.o(.data) for i2c_errors_count
    serial.o(i.SerialAvailable) refers to serial.o(.data) for serialHeadRX
    serial.o(i.SerialRead) refers to serial.o(.bss) for serialBufferRX
    serial.o(i.SerialRead) refers to serial.o(.data) for serialTailRX
    serial.o(i.SerialSerialize) refers to serial.o(.data) for serialHeadTX
    serial.o(i.SerialSerialize) refers to serial.o(.bss) for serialBufferTX
    serial.o(i.SerialTXfree) refers to serial.o(.data) for serialHeadTX
    serial.o(i.SerialUsedTXBuff) refers to serial.o(.data) for serialHeadTX
    serial.o(i.SerialWrite) refers to serial.o(i.SerialSerialize) for SerialSerialize
    serial.o(i.SerialWrite) refers to serial.o(i.UartSendData) for UartSendData
    serial.o(i.UartSendData) refers to usb_ch341.o(i.USB_send) for USB_send
    serial.o(i.UartSendData) refers to serial.o(.data) for serialHeadTX
    serial.o(i.UartSendData) refers to serial.o(.bss) for serialBufferTX
    serial.o(i.store_uart_in_buf) refers to serial.o(.data) for serialHeadRX
    serial.o(i.store_uart_in_buf) refers to serial.o(.bss) for serialBufferRX
    serial.o(i.test_Uart) refers to serial.o(i.UartSendData) for UartSendData
    serial.o(i.test_Uart) refers to serial.o(.data) for serialHeadTX
    serial.o(i.test_Uart) refers to serial.o(.bss) for serialBufferTX
    rx.o(i.computeRC) refers to rx.o(i.readRawRC) for readRawRC
    rx.o(i.computeRC) refers to rx.o(.data) for rc4ValuesIndex
    rx.o(i.computeRC) refers to usart.o(.data) for SBUS_FLAG_
    rx.o(i.computeRC) refers to rx.o(.bss) for rcData4Values
    rx.o(i.computeRC) refers to multiwii.o(.bss) for rcData
    rx.o(i.computeRC) refers to multiwii.o(.data) for rcSerialCount
    rx.o(i.readRawRC) refers to usart.o(i.Capture) for Capture
    rx.o(i.readRawRC) refers to output.o(i.map) for map
    rx.o(i.readRawRC) refers to rx.o(.data) for rcChannel
    rx.o(i.readRawRC) refers to usart.o(.bss) for Cap_CH
    timer.o(i.SysTick_Handler) refers to timer.o(.data) for _millis_time_
    timer.o(i.SysTick_Handler) refers to delay.o(.data) for delays
    timer.o(i.micros) refers to timer.o(.data) for _micros_time_
    timer.o(i.millis) refers to timer.o(.data) for _millis_time_
    timer.o(i.time_init) refers to timer.o(.data) for SysTick_Handler_times
    delay.o(i.delay) refers to delay.o(.data) for delays
    delay.o(i.delay_ms) refers to delay.o(.data) for delays
    delay.o(i.delay_us) refers to delay.o(i.delay_1us) for delay_1us
    re_eeprom.o(i.AT24CXX_Check) refers to re_eeprom.o(i.AT24CXX_ReadOneByte) for AT24CXX_ReadOneByte
    re_eeprom.o(i.AT24CXX_Check) refers to re_eeprom.o(i.AT24CXX_WriteOneByte) for AT24CXX_WriteOneByte
    re_eeprom.o(i.AT24CXX_Check) refers to re_eeprom.o(.data) for temp
    re_eeprom.o(i.AT24CXX_ReadOneByte) refers to re_eeprom.o(i.EEPROM_I2C_Start) for EEPROM_I2C_Start
    re_eeprom.o(i.AT24CXX_ReadOneByte) refers to re_eeprom.o(i.EEPROM_I2C_SendByte) for EEPROM_I2C_SendByte
    re_eeprom.o(i.AT24CXX_ReadOneByte) refers to re_eeprom.o(i.EEPROM_I2C_WaitAck) for EEPROM_I2C_WaitAck
    re_eeprom.o(i.AT24CXX_ReadOneByte) refers to re_eeprom.o(i.EEPROM_I2C_RecvByte) for EEPROM_I2C_RecvByte
    re_eeprom.o(i.AT24CXX_ReadOneByte) refers to re_eeprom.o(i.EEPROM_I2C_Stop) for EEPROM_I2C_Stop
    re_eeprom.o(i.AT24CXX_WriteOneByte) refers to re_eeprom.o(i.EEPROM_I2C_Start) for EEPROM_I2C_Start
    re_eeprom.o(i.AT24CXX_WriteOneByte) refers to re_eeprom.o(i.EEPROM_I2C_SendByte) for EEPROM_I2C_SendByte
    re_eeprom.o(i.AT24CXX_WriteOneByte) refers to re_eeprom.o(i.EEPROM_I2C_WaitAck) for EEPROM_I2C_WaitAck
    re_eeprom.o(i.AT24CXX_WriteOneByte) refers to re_eeprom.o(i.EEPROM_I2C_Stop) for EEPROM_I2C_Stop
    re_eeprom.o(i.AT24CXX_WriteOneByte) refers to re_eeprom.o(i.EEPROM_Delay_1us) for EEPROM_Delay_1us
    re_eeprom.o(i.AT24CXX_write_Page) refers to re_eeprom.o(i.EEPROM_I2C_Start) for EEPROM_I2C_Start
    re_eeprom.o(i.AT24CXX_write_Page) refers to re_eeprom.o(i.EEPROM_I2C_SendByte) for EEPROM_I2C_SendByte
    re_eeprom.o(i.AT24CXX_write_Page) refers to re_eeprom.o(i.EEPROM_I2C_WaitAck) for EEPROM_I2C_WaitAck
    re_eeprom.o(i.AT24CXX_write_Page) refers to re_eeprom.o(i.EEPROM_I2C_Stop) for EEPROM_I2C_Stop
    re_eeprom.o(i.AT24CXX_write_Page) refers to delay.o(i.delay_ms) for delay_ms
    re_eeprom.o(i.EEPROM_I2C_RecvByte) refers to re_eeprom.o(i.EEPROM_Delay_1us) for EEPROM_Delay_1us
    re_eeprom.o(i.EEPROM_I2C_SendACK) refers to re_eeprom.o(i.EEPROM_Delay_1us) for EEPROM_Delay_1us
    re_eeprom.o(i.EEPROM_I2C_SendByte) refers to re_eeprom.o(i.EEPROM_Delay_1us) for EEPROM_Delay_1us
    re_eeprom.o(i.EEPROM_I2C_Start) refers to re_eeprom.o(i.EEPROM_Delay_1us) for EEPROM_Delay_1us
    re_eeprom.o(i.EEPROM_I2C_Stop) refers to re_eeprom.o(i.EEPROM_Delay_1us) for EEPROM_Delay_1us
    re_eeprom.o(i.EEPROM_I2C_WaitAck) refers to re_eeprom.o(i.EEPROM_Delay_1us) for EEPROM_Delay_1us
    re_eeprom.o(i.EEPROM_Single_ReadI2C) refers to re_eeprom.o(i.EEPROM_I2C_Start) for EEPROM_I2C_Start
    re_eeprom.o(i.EEPROM_Single_ReadI2C) refers to re_eeprom.o(i.EEPROM_I2C_SendByte) for EEPROM_I2C_SendByte
    re_eeprom.o(i.EEPROM_Single_ReadI2C) refers to re_eeprom.o(i.EEPROM_I2C_WaitAck) for EEPROM_I2C_WaitAck
    re_eeprom.o(i.EEPROM_Single_ReadI2C) refers to re_eeprom.o(i.EEPROM_I2C_Stop) for EEPROM_I2C_Stop
    re_eeprom.o(i.EEPROM_Single_ReadI2C) refers to re_eeprom.o(i.EEPROM_I2C_RecvByte) for EEPROM_I2C_RecvByte
    re_eeprom.o(i.EEPROM_Single_ReadI2C) refers to re_eeprom.o(i.EEPROM_I2C_SendACK) for EEPROM_I2C_SendACK
    re_eeprom.o(i.EEPROM_Single_WriteI2C) refers to re_eeprom.o(i.EEPROM_I2C_Start) for EEPROM_I2C_Start
    re_eeprom.o(i.EEPROM_Single_WriteI2C) refers to re_eeprom.o(i.EEPROM_I2C_SendByte) for EEPROM_I2C_SendByte
    re_eeprom.o(i.EEPROM_Single_WriteI2C) refers to re_eeprom.o(i.EEPROM_I2C_WaitAck) for EEPROM_I2C_WaitAck
    re_eeprom.o(i.EEPROM_Single_WriteI2C) refers to re_eeprom.o(i.EEPROM_I2C_Stop) for EEPROM_I2C_Stop
    re_eeprom.o(i.eeprom_Continuous_reading) refers to re_eeprom.o(i.EEPROM_I2C_Start) for EEPROM_I2C_Start
    re_eeprom.o(i.eeprom_Continuous_reading) refers to re_eeprom.o(i.EEPROM_I2C_SendByte) for EEPROM_I2C_SendByte
    re_eeprom.o(i.eeprom_Continuous_reading) refers to re_eeprom.o(i.EEPROM_I2C_WaitAck) for EEPROM_I2C_WaitAck
    re_eeprom.o(i.eeprom_Continuous_reading) refers to re_eeprom.o(i.EEPROM_I2C_RecvByte) for EEPROM_I2C_RecvByte
    re_eeprom.o(i.eeprom_Continuous_reading) refers to re_eeprom.o(i.EEPROM_I2C_SendACK) for EEPROM_I2C_SendACK
    re_eeprom.o(i.eeprom_Continuous_reading) refers to re_eeprom.o(i.EEPROM_I2C_Stop) for EEPROM_I2C_Stop
    re_eeprom.o(i.eeprom_read_block) refers to re_eeprom.o(i.eeprom_Continuous_reading) for eeprom_Continuous_reading
    re_eeprom.o(i.eeprom_write_block) refers to re_eeprom.o(i.AT24CXX_write_Page) for AT24CXX_write_Page
    sys.o(i.MYRCC_DeInit) refers to sys.o(i.MY_NVIC_SetVectorTable) for MY_NVIC_SetVectorTable
    sys.o(i.MY_NVIC_Init) refers to sys.o(i.MY_NVIC_PriorityGroupConfig) for MY_NVIC_PriorityGroupConfig
    sys.o(i.Stm32_Clock_Init) refers to sys.o(i.MYRCC_DeInit) for MYRCC_DeInit
    sys.o(i.Sys_Standby) refers to sys.o(.emb_text) for WFI_SET
    gy_86.o(i.I2C_GPIO_Config) refers to stm32f10x_rcc.o(i.RCC_APB2PeriphClockCmd) for RCC_APB2PeriphClockCmd
    gy_86.o(i.I2C_GPIO_Config) refers to stm32f10x_gpio.o(i.GPIO_Init) for GPIO_Init
    gy_86.o(i.I2C_RecvByte) refers to gy_86.o(i.Delay_1us) for Delay_1us
    gy_86.o(i.I2C_SendACK) refers to gy_86.o(i.Delay_1us) for Delay_1us
    gy_86.o(i.I2C_SendByte) refers to gy_86.o(i.Delay_1us) for Delay_1us
    gy_86.o(i.I2C_Start) refers to gy_86.o(i.Delay_1us) for Delay_1us
    gy_86.o(i.I2C_Stop) refers to gy_86.o(i.Delay_1us) for Delay_1us
    gy_86.o(i.I2C_WaitAck) refers to gy_86.o(i.Delay_1us) for Delay_1us
    gy_86.o(i.Single_ReadI2C) refers to gy_86.o(i.I2C_Start) for I2C_Start
    gy_86.o(i.Single_ReadI2C) refers to gy_86.o(i.I2C_SendByte) for I2C_SendByte
    gy_86.o(i.Single_ReadI2C) refers to gy_86.o(i.I2C_WaitAck) for I2C_WaitAck
    gy_86.o(i.Single_ReadI2C) refers to gy_86.o(i.I2C_Stop) for I2C_Stop
    gy_86.o(i.Single_ReadI2C) refers to gy_86.o(i.I2C_RecvByte) for I2C_RecvByte
    gy_86.o(i.Single_ReadI2C) refers to gy_86.o(i.I2C_SendACK) for I2C_SendACK
    gy_86.o(i.Single_ReadI2C) refers to multiwii.o(.data) for i2c_errors_count
    gy_86.o(i.Single_WriteI2C) refers to gy_86.o(i.I2C_Start) for I2C_Start
    gy_86.o(i.Single_WriteI2C) refers to gy_86.o(i.I2C_SendByte) for I2C_SendByte
    gy_86.o(i.Single_WriteI2C) refers to gy_86.o(i.I2C_WaitAck) for I2C_WaitAck
    gy_86.o(i.Single_WriteI2C) refers to gy_86.o(i.I2C_Stop) for I2C_Stop
    gy_86.o(i.Single_WriteI2C) refers to multiwii.o(.data) for i2c_errors_count
    spl06_001.o(i.spl0601_get_calib_param) refers to spl06_001.o(i.spl0601_read) for spl0601_read
    spl06_001.o(i.spl0601_get_calib_param) refers to spl06_001.o(.data) for p_spl0601
    spl06_001.o(i.spl0601_get_pressure) refers to fflti.o(.text) for __aeabi_i2f
    spl06_001.o(i.spl0601_get_pressure) refers to fdiv.o(.text) for __aeabi_fdiv
    spl06_001.o(i.spl0601_get_pressure) refers to fmul.o(.text) for __aeabi_fmul
    spl06_001.o(i.spl0601_get_pressure) refers to fadd.o(.text) for __aeabi_fadd
    spl06_001.o(i.spl0601_get_pressure) refers to spl06_001.o(.data) for p_spl0601
    spl06_001.o(i.spl0601_get_raw_pressure) refers to spl06_001.o(i.spl0601_read) for spl0601_read
    spl06_001.o(i.spl0601_get_raw_pressure) refers to spl06_001.o(.data) for p_spl0601
    spl06_001.o(i.spl0601_get_raw_temp) refers to spl06_001.o(i.spl0601_read) for spl0601_read
    spl06_001.o(i.spl0601_get_raw_temp) refers to spl06_001.o(.data) for p_spl0601
    spl06_001.o(i.spl0601_get_temperature) refers to fflti.o(.text) for __aeabi_i2f
    spl06_001.o(i.spl0601_get_temperature) refers to fdiv.o(.text) for __aeabi_fdiv
    spl06_001.o(i.spl0601_get_temperature) refers to fmul.o(.text) for __aeabi_fmul
    spl06_001.o(i.spl0601_get_temperature) refers to f2d.o(.text) for __aeabi_f2d
    spl06_001.o(i.spl0601_get_temperature) refers to dflti.o(.text) for __aeabi_i2d
    spl06_001.o(i.spl0601_get_temperature) refers to dmul.o(.text) for __aeabi_dmul
    spl06_001.o(i.spl0601_get_temperature) refers to dadd.o(.text) for __aeabi_dadd
    spl06_001.o(i.spl0601_get_temperature) refers to d2f.o(.text) for __aeabi_d2f
    spl06_001.o(i.spl0601_get_temperature) refers to spl06_001.o(.data) for p_spl0601
    spl06_001.o(i.spl0601_init) refers to spl06_001.o(i.spl0601_get_calib_param) for spl0601_get_calib_param
    spl06_001.o(i.spl0601_init) refers to spl06_001.o(i.spl0601_rateset) for spl0601_rateset
    spl06_001.o(i.spl0601_init) refers to spl06_001.o(i.spl0601_start_continuous) for spl0601_start_continuous
    spl06_001.o(i.spl0601_init) refers to spl06_001.o(.bss) for spl0601
    spl06_001.o(i.spl0601_init) refers to spl06_001.o(.data) for p_spl0601
    spl06_001.o(i.spl0601_rateset) refers to spl06_001.o(i.spl0601_write) for spl0601_write
    spl06_001.o(i.spl0601_rateset) refers to spl06_001.o(i.spl0601_read) for spl0601_read
    spl06_001.o(i.spl0601_rateset) refers to spl06_001.o(.data) for p_spl0601
    spl06_001.o(i.spl0601_read) refers to gy_86.o(i.Single_ReadI2C) for Single_ReadI2C
    spl06_001.o(i.spl0601_start_continuous) refers to spl06_001.o(i.spl0601_write) for spl0601_write
    spl06_001.o(i.spl0601_start_pressure) refers to spl06_001.o(i.spl0601_write) for spl0601_write
    spl06_001.o(i.spl0601_start_temperature) refers to spl06_001.o(i.spl0601_write) for spl0601_write
    spl06_001.o(i.spl0601_write) refers to gy_86.o(i.Single_WriteI2C) for Single_WriteI2C
    spl06_001.o(i.user_spl0601_get) refers to spl06_001.o(i.spl0601_get_raw_temp) for spl0601_get_raw_temp
    spl06_001.o(i.user_spl0601_get) refers to spl06_001.o(i.spl0601_get_temperature) for spl0601_get_temperature
    spl06_001.o(i.user_spl0601_get) refers to spl06_001.o(i.spl0601_get_raw_pressure) for spl0601_get_raw_pressure
    spl06_001.o(i.user_spl0601_get) refers to spl06_001.o(i.spl0601_get_pressure) for spl0601_get_pressure
    spl06_001.o(i.user_spl0601_get) refers to fmul.o(.text) for __aeabi_fmul
    spl06_001.o(i.user_spl0601_get) refers to fadd.o(.text) for __aeabi_fsub
    spl06_001.o(i.user_spl0601_get) refers to fflti.o(.text) for __aeabi_i2f
    spl06_001.o(i.user_spl0601_get) refers to ffixi.o(.text) for __aeabi_f2iz
    spl06_001.o(i.user_spl0601_get) refers to spl06_001.o(.data) for temperature
    spl06_001.o(i.user_spl0601_get) refers to multiwii.o(.data) for calibratingB
    spl06_001.o(i.user_spl0601_get) refers to multiwii.o(.bss) for alt
    system_stm32f10x.o(i.SetSysClock) refers to system_stm32f10x.o(i.SetSysClockTo72) for SetSysClockTo72
    system_stm32f10x.o(i.SystemCoreClockUpdate) refers to system_stm32f10x.o(.data) for SystemCoreClock
    system_stm32f10x.o(i.SystemInit) refers to system_stm32f10x.o(i.SetSysClock) for SetSysClock
    startup_stm32f10x_hd.o(RESET) refers to startup_stm32f10x_hd.o(STACK) for __initial_sp
    startup_stm32f10x_hd.o(RESET) refers to startup_stm32f10x_hd.o(.text) for Reset_Handler
    startup_stm32f10x_hd.o(RESET) refers to stm32f10x_it.o(i.NMI_Handler) for NMI_Handler
    startup_stm32f10x_hd.o(RESET) refers to stm32f10x_it.o(i.HardFault_Handler) for HardFault_Handler
    startup_stm32f10x_hd.o(RESET) refers to stm32f10x_it.o(i.MemManage_Handler) for MemManage_Handler
    startup_stm32f10x_hd.o(RESET) refers to stm32f10x_it.o(i.BusFault_Handler) for BusFault_Handler
    startup_stm32f10x_hd.o(RESET) refers to stm32f10x_it.o(i.UsageFault_Handler) for UsageFault_Handler
    startup_stm32f10x_hd.o(RESET) refers to stm32f10x_it.o(i.SVC_Handler) for SVC_Handler
    startup_stm32f10x_hd.o(RESET) refers to stm32f10x_it.o(i.DebugMon_Handler) for DebugMon_Handler
    startup_stm32f10x_hd.o(RESET) refers to stm32f10x_it.o(i.PendSV_Handler) for PendSV_Handler
    startup_stm32f10x_hd.o(RESET) refers to timer.o(i.SysTick_Handler) for SysTick_Handler
    startup_stm32f10x_hd.o(RESET) refers to stm32f10x_it.o(i.WWDG_IRQHandler) for WWDG_IRQHandler
    startup_stm32f10x_hd.o(RESET) refers to stm32f10x_it.o(i.PVD_IRQHandler) for PVD_IRQHandler
    startup_stm32f10x_hd.o(RESET) refers to stm32f10x_it.o(i.TAMPER_IRQHandler) for TAMPER_IRQHandler
    startup_stm32f10x_hd.o(RESET) refers to stm32f10x_it.o(i.RTC_IRQHandler) for RTC_IRQHandler
    startup_stm32f10x_hd.o(RESET) refers to stm32f10x_it.o(i.FLASH_IRQHandler) for FLASH_IRQHandler
    startup_stm32f10x_hd.o(RESET) refers to stm32f10x_it.o(i.RCC_IRQHandler) for RCC_IRQHandler
    startup_stm32f10x_hd.o(RESET) refers to stm32f10x_it.o(i.EXTI0_IRQHandler) for EXTI0_IRQHandler
    startup_stm32f10x_hd.o(RESET) refers to stm32f10x_it.o(i.EXTI2_IRQHandler) for EXTI2_IRQHandler
    startup_stm32f10x_hd.o(RESET) refers to stm32f10x_it.o(i.EXTI3_IRQHandler) for EXTI3_IRQHandler
    startup_stm32f10x_hd.o(RESET) refers to stm32f10x_it.o(i.DMA1_Channel1_IRQHandler) for DMA1_Channel1_IRQHandler
    startup_stm32f10x_hd.o(RESET) refers to stm32f10x_it.o(i.DMA1_Channel2_IRQHandler) for DMA1_Channel2_IRQHandler
    startup_stm32f10x_hd.o(RESET) refers to stm32f10x_it.o(i.DMA1_Channel3_IRQHandler) for DMA1_Channel3_IRQHandler
    startup_stm32f10x_hd.o(RESET) refers to stm32f10x_it.o(i.DMA1_Channel4_IRQHandler) for DMA1_Channel4_IRQHandler
    startup_stm32f10x_hd.o(RESET) refers to stm32f10x_it.o(i.DMA1_Channel5_IRQHandler) for DMA1_Channel5_IRQHandler
    startup_stm32f10x_hd.o(RESET) refers to stm32f10x_it.o(i.DMA1_Channel6_IRQHandler) for DMA1_Channel6_IRQHandler
    startup_stm32f10x_hd.o(RESET) refers to stm32f10x_it.o(i.DMA1_Channel7_IRQHandler) for DMA1_Channel7_IRQHandler
    startup_stm32f10x_hd.o(RESET) refers to stm32f10x_it.o(i.ADC1_2_IRQHandler) for ADC1_2_IRQHandler
    startup_stm32f10x_hd.o(RESET) refers to stm32f10x_it.o(i.USB_HP_CAN1_TX_IRQHandler) for USB_HP_CAN1_TX_IRQHandler
    startup_stm32f10x_hd.o(RESET) refers to usb_ch341.o(i.USB_LP_CAN1_RX0_IRQHandler) for USB_LP_CAN1_RX0_IRQHandler
    startup_stm32f10x_hd.o(RESET) refers to stm32f10x_it.o(i.CAN1_RX1_IRQHandler) for CAN1_RX1_IRQHandler
    startup_stm32f10x_hd.o(RESET) refers to stm32f10x_it.o(i.CAN1_SCE_IRQHandler) for CAN1_SCE_IRQHandler
    startup_stm32f10x_hd.o(RESET) refers to stm32f10x_it.o(i.EXTI9_5_IRQHandler) for EXTI9_5_IRQHandler
    startup_stm32f10x_hd.o(RESET) refers to stm32f10x_it.o(i.TIM1_BRK_IRQHandler) for TIM1_BRK_IRQHandler
    startup_stm32f10x_hd.o(RESET) refers to stm32f10x_it.o(i.TIM1_UP_IRQHandler) for TIM1_UP_IRQHandler
    startup_stm32f10x_hd.o(RESET) refers to stm32f10x_it.o(i.TIM1_TRG_COM_IRQHandler) for TIM1_TRG_COM_IRQHandler
    startup_stm32f10x_hd.o(RESET) refers to stm32f10x_it.o(i.TIM3_IRQHandler) for TIM3_IRQHandler
    startup_stm32f10x_hd.o(RESET) refers to stm32f10x_it.o(i.TIM4_IRQHandler) for TIM4_IRQHandler
    startup_stm32f10x_hd.o(RESET) refers to stm32f10x_it.o(i.I2C2_EV_IRQHandler) for I2C2_EV_IRQHandler
    startup_stm32f10x_hd.o(RESET) refers to stm32f10x_it.o(i.I2C2_ER_IRQHandler) for I2C2_ER_IRQHandler
    startup_stm32f10x_hd.o(RESET) refers to stm32f10x_it.o(i.SPI1_IRQHandler) for SPI1_IRQHandler
    startup_stm32f10x_hd.o(RESET) refers to stm32f10x_it.o(i.SPI2_IRQHandler) for SPI2_IRQHandler
    startup_stm32f10x_hd.o(RESET) refers to usart.o(i.USART1_IRQHandler) for USART1_IRQHandler
    startup_stm32f10x_hd.o(RESET) refers to usart.o(i.USART2_IRQHandler) for USART2_IRQHandler
    startup_stm32f10x_hd.o(RESET) refers to usart.o(i.USART3_IRQHandler) for USART3_IRQHandler
    startup_stm32f10x_hd.o(RESET) refers to stm32f10x_it.o(i.EXTI15_10_IRQHandler) for EXTI15_10_IRQHandler
    startup_stm32f10x_hd.o(RESET) refers to stm32f10x_it.o(i.RTCAlarm_IRQHandler) for RTCAlarm_IRQHandler
    startup_stm32f10x_hd.o(RESET) refers to stm32f10x_it.o(i.USBWakeUp_IRQHandler) for USBWakeUp_IRQHandler
    startup_stm32f10x_hd.o(RESET) refers to stm32f10x_it.o(i.TIM8_BRK_IRQHandler) for TIM8_BRK_IRQHandler
    startup_stm32f10x_hd.o(RESET) refers to stm32f10x_it.o(i.TIM8_UP_IRQHandler) for TIM8_UP_IRQHandler
    startup_stm32f10x_hd.o(RESET) refers to stm32f10x_it.o(i.TIM8_TRG_COM_IRQHandler) for TIM8_TRG_COM_IRQHandler
    startup_stm32f10x_hd.o(RESET) refers to stm32f10x_it.o(i.TIM8_CC_IRQHandler) for TIM8_CC_IRQHandler
    startup_stm32f10x_hd.o(RESET) refers to stm32f10x_it.o(i.ADC3_IRQHandler) for ADC3_IRQHandler
    startup_stm32f10x_hd.o(RESET) refers to stm32f10x_it.o(i.FSMC_IRQHandler) for FSMC_IRQHandler
    startup_stm32f10x_hd.o(RESET) refers to stm32f10x_it.o(i.SDIO_IRQHandler) for SDIO_IRQHandler
    startup_stm32f10x_hd.o(RESET) refers to stm32f10x_it.o(i.SPI3_IRQHandler) for SPI3_IRQHandler
    startup_stm32f10x_hd.o(RESET) refers to stm32f10x_it.o(i.TIM6_IRQHandler) for TIM6_IRQHandler
    startup_stm32f10x_hd.o(RESET) refers to stm32f10x_it.o(i.TIM7_IRQHandler) for TIM7_IRQHandler
    startup_stm32f10x_hd.o(RESET) refers to stm32f10x_it.o(i.DMA2_Channel1_IRQHandler) for DMA2_Channel1_IRQHandler
    startup_stm32f10x_hd.o(RESET) refers to stm32f10x_it.o(i.DMA2_Channel2_IRQHandler) for DMA2_Channel2_IRQHandler
    startup_stm32f10x_hd.o(RESET) refers to stm32f10x_it.o(i.DMA2_Channel3_IRQHandler) for DMA2_Channel3_IRQHandler
    startup_stm32f10x_hd.o(RESET) refers to stm32f10x_it.o(i.DMA2_Channel4_5_IRQHandler) for DMA2_Channel4_5_IRQHandler
    startup_stm32f10x_hd.o(.text) refers to system_stm32f10x.o(i.SystemInit) for SystemInit
    startup_stm32f10x_hd.o(.text) refers to entry.o(.ARM.Collect$$$$00000000) for __main
    usart.o(i.Capture) refers to usart.o(.bss) for SBUSBuf
    usart.o(i.USART1_IRQHandler) refers to serial.o(i.store_uart_in_buf) for store_uart_in_buf
    usart.o(i.USART2_Configuration) refers to stm32f10x_rcc.o(i.RCC_APB2PeriphClockCmd) for RCC_APB2PeriphClockCmd
    usart.o(i.USART2_Configuration) refers to stm32f10x_rcc.o(i.RCC_APB1PeriphClockCmd) for RCC_APB1PeriphClockCmd
    usart.o(i.USART2_Configuration) refers to stm32f10x_gpio.o(i.GPIO_Init) for GPIO_Init
    usart.o(i.USART2_Configuration) refers to misc.o(i.NVIC_Init) for NVIC_Init
    usart.o(i.USART2_Configuration) refers to stm32f10x_usart.o(i.USART_Init) for USART_Init
    usart.o(i.USART2_Configuration) refers to stm32f10x_usart.o(i.USART_ITConfig) for USART_ITConfig
    usart.o(i.USART2_Configuration) refers to stm32f10x_usart.o(i.USART_Cmd) for USART_Cmd
    usart.o(i.USART2_IRQHandler) refers to serial.o(i.store_uart_in_buf) for store_uart_in_buf
    usart.o(i.USART3_Configuration) refers to stm32f10x_rcc.o(i.RCC_APB2PeriphClockCmd) for RCC_APB2PeriphClockCmd
    usart.o(i.USART3_Configuration) refers to stm32f10x_rcc.o(i.RCC_APB1PeriphClockCmd) for RCC_APB1PeriphClockCmd
    usart.o(i.USART3_Configuration) refers to stm32f10x_usart.o(i.USART_DeInit) for USART_DeInit
    usart.o(i.USART3_Configuration) refers to stm32f10x_gpio.o(i.GPIO_Init) for GPIO_Init
    usart.o(i.USART3_Configuration) refers to misc.o(i.NVIC_Init) for NVIC_Init
    usart.o(i.USART3_Configuration) refers to stm32f10x_usart.o(i.USART_Init) for USART_Init
    usart.o(i.USART3_Configuration) refers to stm32f10x_usart.o(i.USART_ITConfig) for USART_ITConfig
    usart.o(i.USART3_Configuration) refers to stm32f10x_usart.o(i.USART_Cmd) for USART_Cmd
    usart.o(i.USART3_IRQHandler) refers to usart.o(.bss) for testdata
    usart.o(i.USART3_IRQHandler) refers to usart.o(.data) for startflag
    usart.o(i.uart_init) refers to stm32f10x_usart.o(i.USART_Init) for USART_Init
    usart.o(i.uart_init) refers to stm32f10x_usart.o(i.USART_ITConfig) for USART_ITConfig
    usart.o(i.uart_init) refers to stm32f10x_usart.o(i.USART_Cmd) for USART_Cmd
    usb_ch341.o(i.CTR_HP) refers to usb_ch341.o(.data) for wIstr
    usb_ch341.o(i.CTR_LP) refers to usb_ch341.o(i.In0_Process) for In0_Process
    usb_ch341.o(i.CTR_LP) refers to usb_ch341.o(i.Setup0_Process) for Setup0_Process
    usb_ch341.o(i.CTR_LP) refers to usb_ch341.o(i.Out0_Process) for Out0_Process
    usb_ch341.o(i.CTR_LP) refers to usb_ch341.o(.data) for wIstr
    usb_ch341.o(i.DataStageIn) refers to usb_ch341.o(i.GetEPTxAddr) for GetEPTxAddr
    usb_ch341.o(i.DataStageIn) refers to usb_ch341.o(i.UserToPMABufferCopy) for UserToPMABufferCopy
    usb_ch341.o(i.DataStageIn) refers to usb_ch341.o(i.SetEPTxCount) for SetEPTxCount
    usb_ch341.o(i.DataStageIn) refers to usb_ch341.o(.data) for pInformation
    usb_ch341.o(i.DataStageOut) refers to usb_ch341.o(i.GetEPRxAddr) for GetEPRxAddr
    usb_ch341.o(i.DataStageOut) refers to usb_ch341.o(i.PMAToUserBufferCopy) for PMAToUserBufferCopy
    usb_ch341.o(i.DataStageOut) refers to usb_ch341.o(i.SetEPTxCount) for SetEPTxCount
    usb_ch341.o(i.DataStageOut) refers to usb_ch341.o(.data) for pInformation
    usb_ch341.o(i.Data_Setup0) refers to usb_ch341.o(i.DataStageIn) for DataStageIn
    usb_ch341.o(i.Data_Setup0) refers to usb_ch341.o(.data) for pInformation
    usb_ch341.o(i.Data_Setup0) refers to usb_ch341.o(i.Standard_GetStatus) for Standard_GetStatus
    usb_ch341.o(i.Data_Setup0) refers to usb_ch341.o(i.Standard_GetConfiguration) for Standard_GetConfiguration
    usb_ch341.o(i.Data_Setup0) refers to usb_ch341.o(i.Standard_GetInterface) for Standard_GetInterface
    usb_ch341.o(i.EP2_OUT_Callback) refers to usb_ch341.o(i.GetEPRxCount) for GetEPRxCount
    usb_ch341.o(i.EP2_OUT_Callback) refers to usb_ch341.o(i.PMAToUserBufferCopy) for PMAToUserBufferCopy
    usb_ch341.o(i.EP2_OUT_Callback) refers to usb_ch341.o(i.USB_receive) for USB_receive
    usb_ch341.o(i.EP2_OUT_Callback) refers to usb_ch341.o(i.SetEPRxValid) for SetEPRxValid
    usb_ch341.o(i.EP2_OUT_Callback) refers to usb_ch341.o(.bss) for buffer_out
    usb_ch341.o(i.Enter_LowPowerMode) refers to usb_ch341.o(.data) for bDeviceState
    usb_ch341.o(i.Get_SerialNum) refers to usb_ch341.o(.data) for Virtual_Com_Port_StringSerial
    usb_ch341.o(i.In0_Process) refers to usb_ch341.o(i.DataStageIn) for DataStageIn
    usb_ch341.o(i.In0_Process) refers to usb_ch341.o(i.SetDeviceAddress) for SetDeviceAddress
    usb_ch341.o(i.In0_Process) refers to usb_ch341.o(i.Post0_Process) for Post0_Process
    usb_ch341.o(i.In0_Process) refers to usb_ch341.o(.data) for pInformation
    usb_ch341.o(i.Leave_LowPowerMode) refers to usb_ch341.o(.bss) for Device_Info
    usb_ch341.o(i.Leave_LowPowerMode) refers to usb_ch341.o(.data) for bDeviceState
    usb_ch341.o(i.NoData_Setup0) refers to usb_ch341.o(i.Standard_SetConfiguration) for Standard_SetConfiguration
    usb_ch341.o(i.NoData_Setup0) refers to usb_ch341.o(i.Standard_SetDeviceFeature) for Standard_SetDeviceFeature
    usb_ch341.o(i.NoData_Setup0) refers to usb_ch341.o(i.Standard_ClearFeature) for Standard_ClearFeature
    usb_ch341.o(i.NoData_Setup0) refers to usb_ch341.o(i.Standard_SetInterface) for Standard_SetInterface
    usb_ch341.o(i.NoData_Setup0) refers to usb_ch341.o(i.Standard_SetEndPointFeature) for Standard_SetEndPointFeature
    usb_ch341.o(i.NoData_Setup0) refers to usb_ch341.o(.data) for pInformation
    usb_ch341.o(i.Out0_Process) refers to usb_ch341.o(i.DataStageOut) for DataStageOut
    usb_ch341.o(i.Out0_Process) refers to usb_ch341.o(i.Post0_Process) for Post0_Process
    usb_ch341.o(i.Out0_Process) refers to usb_ch341.o(.data) for pInformation
    usb_ch341.o(i.Post0_Process) refers to usb_ch341.o(i.SetEPRxCount) for SetEPRxCount
    usb_ch341.o(i.Post0_Process) refers to usb_ch341.o(.data) for Device_Property
    usb_ch341.o(i.PowerOff) refers to usb_ch341.o(i.USB_Cable_Config) for USB_Cable_Config
    usb_ch341.o(i.PowerOn) refers to usb_ch341.o(i.USB_Cable_Config) for USB_Cable_Config
    usb_ch341.o(i.PowerOn) refers to usb_ch341.o(.data) for wInterrupt_Mask
    usb_ch341.o(i.Resume) refers to usb_ch341.o(i.Resume_Init) for Resume_Init
    usb_ch341.o(i.Resume) refers to usb_ch341.o(.data) for ResumeS
    usb_ch341.o(i.Resume_Init) refers to usb_ch341.o(i.Leave_LowPowerMode) for Leave_LowPowerMode
    usb_ch341.o(i.SetDeviceAddress) refers to usb_ch341.o(.data) for Device_Table
    usb_ch341.o(i.SetDouBleBuffEPStall) refers to usb_ch341.o(i.GetENDPOINT) for GetENDPOINT
    usb_ch341.o(i.Set_USBClock) refers to stm32f10x_rcc.o(i.RCC_USBCLKConfig) for RCC_USBCLKConfig
    usb_ch341.o(i.Set_USBClock) refers to stm32f10x_rcc.o(i.RCC_APB1PeriphClockCmd) for RCC_APB1PeriphClockCmd
    usb_ch341.o(i.Setup0_Process) refers to usb_ch341.o(i.ByteSwap) for ByteSwap
    usb_ch341.o(i.Setup0_Process) refers to usb_ch341.o(i.NoData_Setup0) for NoData_Setup0
    usb_ch341.o(i.Setup0_Process) refers to usb_ch341.o(i.Data_Setup0) for Data_Setup0
    usb_ch341.o(i.Setup0_Process) refers to usb_ch341.o(i.Post0_Process) for Post0_Process
    usb_ch341.o(i.Setup0_Process) refers to usb_ch341.o(.data) for pInformation
    usb_ch341.o(i.Standard_ClearFeature) refers to usb_ch341.o(i.ClearDTOG_TX) for ClearDTOG_TX
    usb_ch341.o(i.Standard_ClearFeature) refers to usb_ch341.o(i.SetEPTxStatus) for SetEPTxStatus
    usb_ch341.o(i.Standard_ClearFeature) refers to usb_ch341.o(i.SetEPRxCount) for SetEPRxCount
    usb_ch341.o(i.Standard_ClearFeature) refers to usb_ch341.o(i.ClearDTOG_RX) for ClearDTOG_RX
    usb_ch341.o(i.Standard_ClearFeature) refers to usb_ch341.o(.data) for pInformation
    usb_ch341.o(i.Standard_GetConfiguration) refers to usb_ch341.o(.data) for pInformation
    usb_ch341.o(i.Standard_GetDescriptorData) refers to usb_ch341.o(.data) for pInformation
    usb_ch341.o(i.Standard_GetInterface) refers to usb_ch341.o(.data) for pInformation
    usb_ch341.o(i.Standard_GetStatus) refers to usb_ch341.o(.data) for pInformation
    usb_ch341.o(i.Standard_SetConfiguration) refers to usb_ch341.o(.data) for pInformation
    usb_ch341.o(i.Standard_SetDeviceFeature) refers to usb_ch341.o(.data) for pInformation
    usb_ch341.o(i.Standard_SetEndPointFeature) refers to usb_ch341.o(.data) for pInformation
    usb_ch341.o(i.Standard_SetInterface) refers to usb_ch341.o(.data) for pInformation
    usb_ch341.o(i.Suspend) refers to usb_ch341.o(i.Enter_LowPowerMode) for Enter_LowPowerMode
    usb_ch341.o(i.USB_CH341_Init) refers to usb_ch341.o(i.Set_USBClock) for Set_USBClock
    usb_ch341.o(i.USB_CH341_Init) refers to usb_ch341.o(i.USB_Interrupts_Config) for USB_Interrupts_Config
    usb_ch341.o(i.USB_CH341_Init) refers to usb_ch341.o(i.USB_Init) for USB_Init
    usb_ch341.o(i.USB_Cable_Config) refers to stm32f10x_gpio.o(i.GPIO_SetBits) for GPIO_SetBits
    usb_ch341.o(i.USB_Cable_Config) refers to stm32f10x_gpio.o(i.GPIO_ResetBits) for GPIO_ResetBits
    usb_ch341.o(i.USB_Init) refers to stm32f10x_rcc.o(i.RCC_APB2PeriphClockCmd) for RCC_APB2PeriphClockCmd
    usb_ch341.o(i.USB_Init) refers to stm32f10x_gpio.o(i.GPIO_Init) for GPIO_Init
    usb_ch341.o(i.USB_Init) refers to stm32f10x_gpio.o(i.GPIO_ResetBits) for GPIO_ResetBits
    usb_ch341.o(i.USB_Init) refers to usb_ch341.o(.bss) for Device_Info
    usb_ch341.o(i.USB_Init) refers to usb_ch341.o(.data) for pInformation
    usb_ch341.o(i.USB_Interrupts_Config) refers to misc.o(i.NVIC_SetVectorTable) for NVIC_SetVectorTable
    usb_ch341.o(i.USB_Interrupts_Config) refers to misc.o(i.NVIC_PriorityGroupConfig) for NVIC_PriorityGroupConfig
    usb_ch341.o(i.USB_Interrupts_Config) refers to misc.o(i.NVIC_Init) for NVIC_Init
    usb_ch341.o(i.USB_LP_CAN1_RX0_IRQHandler) refers to usb_ch341.o(i.CTR_LP) for CTR_LP
    usb_ch341.o(i.USB_LP_CAN1_RX0_IRQHandler) refers to usb_ch341.o(.data) for wIstr
    usb_ch341.o(i.USB_receive) refers to serial.o(i.store_uart_in_buf) for store_uart_in_buf
    usb_ch341.o(i.USB_send) refers to usb_ch341.o(i.UserToPMABufferCopy) for UserToPMABufferCopy
    usb_ch341.o(i.USB_send) refers to usb_ch341.o(i.SetEPTxCount) for SetEPTxCount
    usb_ch341.o(i.USB_send) refers to usb_ch341.o(i.SetEPTxValid) for SetEPTxValid
    usb_ch341.o(i.USB_send) refers to usb_ch341.o(i.GetEPTxStatus) for GetEPTxStatus
    usb_ch341.o(i.Vender_Handle_CH341) refers to usb_ch341.o(.data) for pInformation
    usb_ch341.o(i.Virtual_Com_Port_Data_Setup) refers to usb_ch341.o(.data) for pInformation
    usb_ch341.o(i.Virtual_Com_Port_Data_Setup) refers to usb_ch341.o(i.Virtual_Com_Port_GetLineCoding) for Virtual_Com_Port_GetLineCoding
    usb_ch341.o(i.Virtual_Com_Port_Data_Setup) refers to usb_ch341.o(i.Virtual_Com_Port_SetLineCoding) for Virtual_Com_Port_SetLineCoding
    usb_ch341.o(i.Virtual_Com_Port_Data_Setup) refers to usb_ch341.o(i.Vender_Handle_CH341) for Vender_Handle_CH341
    usb_ch341.o(i.Virtual_Com_Port_GetConfigDescriptor) refers to usb_ch341.o(i.Standard_GetDescriptorData) for Standard_GetDescriptorData
    usb_ch341.o(i.Virtual_Com_Port_GetConfigDescriptor) refers to usb_ch341.o(.data) for Config_Descriptor
    usb_ch341.o(i.Virtual_Com_Port_GetDeviceDescriptor) refers to usb_ch341.o(i.Standard_GetDescriptorData) for Standard_GetDescriptorData
    usb_ch341.o(i.Virtual_Com_Port_GetDeviceDescriptor) refers to usb_ch341.o(.data) for Device_Descriptor
    usb_ch341.o(i.Virtual_Com_Port_GetLineCoding) refers to usb_ch341.o(.data) for pInformation
    usb_ch341.o(i.Virtual_Com_Port_GetStringDescriptor) refers to usb_ch341.o(i.Standard_GetDescriptorData) for Standard_GetDescriptorData
    usb_ch341.o(i.Virtual_Com_Port_GetStringDescriptor) refers to usb_ch341.o(.data) for pInformation
    usb_ch341.o(i.Virtual_Com_Port_NoData_Setup) refers to usb_ch341.o(.data) for pInformation
    usb_ch341.o(i.Virtual_Com_Port_Reset) refers to usb_ch341.o(i.SetBTABLE) for SetBTABLE
    usb_ch341.o(i.Virtual_Com_Port_Reset) refers to usb_ch341.o(i.SetEPType) for SetEPType
    usb_ch341.o(i.Virtual_Com_Port_Reset) refers to usb_ch341.o(i.SetEPTxStatus) for SetEPTxStatus
    usb_ch341.o(i.Virtual_Com_Port_Reset) refers to usb_ch341.o(i.SetEPRxAddr) for SetEPRxAddr
    usb_ch341.o(i.Virtual_Com_Port_Reset) refers to usb_ch341.o(i.SetEPTxAddr) for SetEPTxAddr
    usb_ch341.o(i.Virtual_Com_Port_Reset) refers to usb_ch341.o(i.Clear_Status_Out) for Clear_Status_Out
    usb_ch341.o(i.Virtual_Com_Port_Reset) refers to usb_ch341.o(i.SetEPRxCount) for SetEPRxCount
    usb_ch341.o(i.Virtual_Com_Port_Reset) refers to usb_ch341.o(i.SetEPRxValid) for SetEPRxValid
    usb_ch341.o(i.Virtual_Com_Port_Reset) refers to usb_ch341.o(i.SetEPRxStatus) for SetEPRxStatus
    usb_ch341.o(i.Virtual_Com_Port_Reset) refers to usb_ch341.o(i.SetDeviceAddress) for SetDeviceAddress
    usb_ch341.o(i.Virtual_Com_Port_Reset) refers to usb_ch341.o(.data) for pInformation
    usb_ch341.o(i.Virtual_Com_Port_Reset) refers to usb_ch341.o(.constdata) for Virtual_Com_Port_ConfigDescriptor
    usb_ch341.o(i.Virtual_Com_Port_SetConfiguration) refers to usb_ch341.o(.bss) for Device_Info
    usb_ch341.o(i.Virtual_Com_Port_SetConfiguration) refers to usb_ch341.o(.data) for bDeviceState
    usb_ch341.o(i.Virtual_Com_Port_SetDeviceAddress) refers to usb_ch341.o(.data) for bDeviceState
    usb_ch341.o(i.Virtual_Com_Port_SetLineCoding) refers to usb_ch341.o(.data) for pInformation
    usb_ch341.o(i.Virtual_Com_Port_Status_In) refers to usb_ch341.o(.data) for Request
    usb_ch341.o(i.Virtual_Com_Port_init) refers to usb_ch341.o(i.Get_SerialNum) for Get_SerialNum
    usb_ch341.o(i.Virtual_Com_Port_init) refers to usb_ch341.o(i.PowerOn) for PowerOn
    usb_ch341.o(i.Virtual_Com_Port_init) refers to usb_ch341.o(.data) for pInformation
    usb_ch341.o(.data) refers to usb_ch341.o(i.Virtual_Com_Port_init) for Virtual_Com_Port_init
    usb_ch341.o(.data) refers to usb_ch341.o(i.Virtual_Com_Port_Reset) for Virtual_Com_Port_Reset
    usb_ch341.o(.data) refers to usb_ch341.o(i.Virtual_Com_Port_Status_In) for Virtual_Com_Port_Status_In
    usb_ch341.o(.data) refers to usb_ch341.o(i.Virtual_Com_Port_Status_Out) for Virtual_Com_Port_Status_Out
    usb_ch341.o(.data) refers to usb_ch341.o(i.Virtual_Com_Port_Data_Setup) for Virtual_Com_Port_Data_Setup
    usb_ch341.o(.data) refers to usb_ch341.o(i.Virtual_Com_Port_NoData_Setup) for Virtual_Com_Port_NoData_Setup
    usb_ch341.o(.data) refers to usb_ch341.o(i.Virtual_Com_Port_Get_Interface_Setting) for Virtual_Com_Port_Get_Interface_Setting
    usb_ch341.o(.data) refers to usb_ch341.o(i.Virtual_Com_Port_GetDeviceDescriptor) for Virtual_Com_Port_GetDeviceDescriptor
    usb_ch341.o(.data) refers to usb_ch341.o(i.Virtual_Com_Port_GetConfigDescriptor) for Virtual_Com_Port_GetConfigDescriptor
    usb_ch341.o(.data) refers to usb_ch341.o(i.Virtual_Com_Port_GetStringDescriptor) for Virtual_Com_Port_GetStringDescriptor
    usb_ch341.o(.data) refers to usb_ch341.o(i.NOP_Process) for NOP_Process
    usb_ch341.o(.data) refers to usb_ch341.o(i.Virtual_Com_Port_SetConfiguration) for Virtual_Com_Port_SetConfiguration
    usb_ch341.o(.data) refers to usb_ch341.o(i.Virtual_Com_Port_SetDeviceAddress) for Virtual_Com_Port_SetDeviceAddress
    usb_ch341.o(.data) refers to usb_ch341.o(.constdata) for Virtual_Com_Port_DeviceDescriptor
    usb_ch341.o(.data) refers to usb_ch341.o(i.EP1_IN_Callback) for EP1_IN_Callback
    usb_ch341.o(.data) refers to usb_ch341.o(i.EP2_IN_Callback) for EP2_IN_Callback
    usb_ch341.o(.data) refers to usb_ch341.o(i.EP2_OUT_Callback) for EP2_OUT_Callback
    stm32f10x_gpio.o(i.GPIO_DeInit) refers to stm32f10x_rcc.o(i.RCC_APB2PeriphResetCmd) for RCC_APB2PeriphResetCmd
    stm32f10x_gpio.o(i.GPIO_AFIODeInit) refers to stm32f10x_rcc.o(i.RCC_APB2PeriphResetCmd) for RCC_APB2PeriphResetCmd
    stm32f10x_rcc.o(i.RCC_WaitForHSEStartUp) refers to stm32f10x_rcc.o(i.RCC_GetFlagStatus) for RCC_GetFlagStatus
    stm32f10x_rcc.o(i.RCC_WaitForHSEStartUp) refers to stm32f10x_rcc.o(.data) for .data
    stm32f10x_rcc.o(i.RCC_GetClocksFreq) refers to stm32f10x_rcc.o(.constdata) for .constdata
    stm32f10x_tim.o(i.TIM_DeInit) refers to stm32f10x_rcc.o(i.RCC_APB1PeriphResetCmd) for RCC_APB1PeriphResetCmd
    stm32f10x_tim.o(i.TIM_DeInit) refers to stm32f10x_rcc.o(i.RCC_APB2PeriphResetCmd) for RCC_APB2PeriphResetCmd
    stm32f10x_tim.o(i.TIM_ICInit) refers to stm32f10x_tim.o(i.TI1_Config) for TI1_Config
    stm32f10x_tim.o(i.TIM_ICInit) refers to stm32f10x_tim.o(i.TIM_SetIC1Prescaler) for TIM_SetIC1Prescaler
    stm32f10x_tim.o(i.TIM_ICInit) refers to stm32f10x_tim.o(i.TI2_Config) for TI2_Config
    stm32f10x_tim.o(i.TIM_ICInit) refers to stm32f10x_tim.o(i.TIM_SetIC2Prescaler) for TIM_SetIC2Prescaler
    stm32f10x_tim.o(i.TIM_ICInit) refers to stm32f10x_tim.o(i.TIM_SetIC3Prescaler) for TIM_SetIC3Prescaler
    stm32f10x_tim.o(i.TIM_ICInit) refers to stm32f10x_tim.o(i.TIM_SetIC4Prescaler) for TIM_SetIC4Prescaler
    stm32f10x_tim.o(i.TIM_PWMIConfig) refers to stm32f10x_tim.o(i.TI1_Config) for TI1_Config
    stm32f10x_tim.o(i.TIM_PWMIConfig) refers to stm32f10x_tim.o(i.TIM_SetIC1Prescaler) for TIM_SetIC1Prescaler
    stm32f10x_tim.o(i.TIM_PWMIConfig) refers to stm32f10x_tim.o(i.TI2_Config) for TI2_Config
    stm32f10x_tim.o(i.TIM_PWMIConfig) refers to stm32f10x_tim.o(i.TIM_SetIC2Prescaler) for TIM_SetIC2Prescaler
    stm32f10x_tim.o(i.TIM_TIxExternalClockConfig) refers to stm32f10x_tim.o(i.TI2_Config) for TI2_Config
    stm32f10x_tim.o(i.TIM_TIxExternalClockConfig) refers to stm32f10x_tim.o(i.TI1_Config) for TI1_Config
    stm32f10x_tim.o(i.TIM_ETRClockMode1Config) refers to stm32f10x_tim.o(i.TIM_ETRConfig) for TIM_ETRConfig
    stm32f10x_tim.o(i.TIM_ETRClockMode2Config) refers to stm32f10x_tim.o(i.TIM_ETRConfig) for TIM_ETRConfig
    stm32f10x_usart.o(i.USART_DeInit) refers to stm32f10x_rcc.o(i.RCC_APB2PeriphResetCmd) for RCC_APB2PeriphResetCmd
    stm32f10x_usart.o(i.USART_DeInit) refers to stm32f10x_rcc.o(i.RCC_APB1PeriphResetCmd) for RCC_APB1PeriphResetCmd
    stm32f10x_usart.o(i.USART_Init) refers to stm32f10x_rcc.o(i.RCC_GetClocksFreq) for RCC_GetClocksFreq
    atan2.o(i.__softfp_atan2) refers (Special) to iusefp.o(.text) for __I$use$fp
    atan2.o(i.__softfp_atan2) refers to atan2.o(i.atan2) for atan2
    atan2.o(i.atan2) refers (Special) to iusefp.o(.text) for __I$use$fp
    atan2.o(i.atan2) refers to dunder.o(i.__mathlib_dbl_infnan2) for __mathlib_dbl_infnan2
    atan2.o(i.atan2) refers to atan.o(i.atan) for atan
    atan2.o(i.atan2) refers to ddiv.o(.text) for __aeabi_ddiv
    atan2.o(i.atan2) refers to dadd.o(.text) for __aeabi_dsub
    atan2.o(i.atan2) refers to qnan.o(.constdata) for __mathlib_zero
    atan2_x.o(i.____softfp_atan2$lsc) refers (Special) to iusefp.o(.text) for __I$use$fp
    atan2_x.o(i.____softfp_atan2$lsc) refers to atan2_x.o(i.__atan2$lsc) for __atan2$lsc
    atan2_x.o(i.__atan2$lsc) refers (Special) to iusefp.o(.text) for __I$use$fp
    atan2_x.o(i.__atan2$lsc) refers to dunder.o(i.__mathlib_dbl_infnan2) for __mathlib_dbl_infnan2
    atan2_x.o(i.__atan2$lsc) refers to atan.o(i.atan) for atan
    atan2_x.o(i.__atan2$lsc) refers to errno.o(i.__set_errno) for __set_errno
    atan2_x.o(i.__atan2$lsc) refers to ddiv.o(.text) for __aeabi_ddiv
    atan2_x.o(i.__atan2$lsc) refers to dadd.o(.text) for __aeabi_dsub
    atan2_x.o(i.__atan2$lsc) refers to qnan.o(.constdata) for __mathlib_zero
    cos.o(i.__softfp_cos) refers (Special) to iusefp.o(.text) for __I$use$fp
    cos.o(i.__softfp_cos) refers to cos.o(i.cos) for cos
    cos.o(i.cos) refers (Special) to iusefp.o(.text) for __I$use$fp
    cos.o(i.cos) refers to errno.o(i.__set_errno) for __set_errno
    cos.o(i.cos) refers to dunder.o(i.__mathlib_dbl_invalid) for __mathlib_dbl_invalid
    cos.o(i.cos) refers to dunder.o(i.__mathlib_dbl_infnan) for __mathlib_dbl_infnan
    cos.o(i.cos) refers to rred.o(i.__ieee754_rem_pio2) for __ieee754_rem_pio2
    cos.o(i.cos) refers to sin_i.o(i.__kernel_sin) for __kernel_sin
    cos.o(i.cos) refers to cos_i.o(i.__kernel_cos) for __kernel_cos
    cos_x.o(i.____softfp_cos$lsc) refers (Special) to iusefp.o(.text) for __I$use$fp
    cos_x.o(i.____softfp_cos$lsc) refers to cos_x.o(i.__cos$lsc) for __cos$lsc
    cos_x.o(i.__cos$lsc) refers (Special) to iusefp.o(.text) for __I$use$fp
    cos_x.o(i.__cos$lsc) refers to errno.o(i.__set_errno) for __set_errno
    cos_x.o(i.__cos$lsc) refers to dunder.o(i.__mathlib_dbl_infnan) for __mathlib_dbl_infnan
    cos_x.o(i.__cos$lsc) refers to rred.o(i.__ieee754_rem_pio2) for __ieee754_rem_pio2
    cos_x.o(i.__cos$lsc) refers to sin_i.o(i.__kernel_sin) for __kernel_sin
    cos_x.o(i.__cos$lsc) refers to cos_i.o(i.__kernel_cos) for __kernel_cos
    sin.o(i.__softfp_sin) refers (Special) to iusefp.o(.text) for __I$use$fp
    sin.o(i.__softfp_sin) refers to sin.o(i.sin) for sin
    sin.o(i.sin) refers (Special) to iusefp.o(.text) for __I$use$fp
    sin.o(i.sin) refers to errno.o(i.__set_errno) for __set_errno
    sin.o(i.sin) refers to dunder.o(i.__mathlib_dbl_invalid) for __mathlib_dbl_invalid
    sin.o(i.sin) refers to dunder.o(i.__mathlib_dbl_infnan) for __mathlib_dbl_infnan
    sin.o(i.sin) refers to rred.o(i.__ieee754_rem_pio2) for __ieee754_rem_pio2
    sin.o(i.sin) refers to cos_i.o(i.__kernel_cos) for __kernel_cos
    sin.o(i.sin) refers to sin_i.o(i.__kernel_sin) for __kernel_sin
    sin_x.o(i.____softfp_sin$lsc) refers (Special) to iusefp.o(.text) for __I$use$fp
    sin_x.o(i.____softfp_sin$lsc) refers to sin_x.o(i.__sin$lsc) for __sin$lsc
    sin_x.o(i.__sin$lsc) refers (Special) to iusefp.o(.text) for __I$use$fp
    sin_x.o(i.__sin$lsc) refers to errno.o(i.__set_errno) for __set_errno
    sin_x.o(i.__sin$lsc) refers to dunder.o(i.__mathlib_dbl_infnan) for __mathlib_dbl_infnan
    sin_x.o(i.__sin$lsc) refers to rred.o(i.__ieee754_rem_pio2) for __ieee754_rem_pio2
    sin_x.o(i.__sin$lsc) refers to cos_i.o(i.__kernel_cos) for __kernel_cos
    sin_x.o(i.__sin$lsc) refers to sin_i.o(i.__kernel_sin) for __kernel_sin
    sqrt.o(i.__softfp_sqrt) refers (Special) to iusefp.o(.text) for __I$use$fp
    sqrt.o(i.__softfp_sqrt) refers to dsqrt.o(.text) for _dsqrt
    sqrt.o(i.__softfp_sqrt) refers to errno.o(i.__set_errno) for __set_errno
    sqrt.o(i.sqrt) refers (Special) to iusefp.o(.text) for __I$use$fp
    sqrt.o(i.sqrt) refers to dsqrt.o(.text) for _dsqrt
    sqrt.o(i.sqrt) refers to errno.o(i.__set_errno) for __set_errno
    sqrt_x.o(i.____softfp_sqrt$lsc) refers (Special) to iusefp.o(.text) for __I$use$fp
    sqrt_x.o(i.____softfp_sqrt$lsc) refers to cdcmple.o(.text) for __aeabi_cdcmple
    sqrt_x.o(i.____softfp_sqrt$lsc) refers to errno.o(i.__set_errno) for __set_errno
    sqrt_x.o(i.____softfp_sqrt$lsc) refers to dsqrt.o(.text) for _dsqrt
    sqrt_x.o(i.__sqrt$lsc) refers (Special) to iusefp.o(.text) for __I$use$fp
    sqrt_x.o(i.__sqrt$lsc) refers to cdcmple.o(.text) for __aeabi_cdcmple
    sqrt_x.o(i.__sqrt$lsc) refers to errno.o(i.__set_errno) for __set_errno
    sqrt_x.o(i.__sqrt$lsc) refers to dsqrt.o(.text) for _dsqrt
    entry.o(.ARM.Collect$$$$00000000) refers (Special) to entry10a.o(.ARM.Collect$$$$0000000D) for __rt_final_cpp
    entry.o(.ARM.Collect$$$$00000000) refers (Special) to entry11a.o(.ARM.Collect$$$$0000000F) for __rt_final_exit
    entry.o(.ARM.Collect$$$$00000000) refers (Special) to entry7b.o(.ARM.Collect$$$$00000008) for _main_clock
    entry.o(.ARM.Collect$$$$00000000) refers (Special) to entry8b.o(.ARM.Collect$$$$0000000A) for _main_cpp_init
    entry.o(.ARM.Collect$$$$00000000) refers (Special) to entry9a.o(.ARM.Collect$$$$0000000B) for _main_init
    entry.o(.ARM.Collect$$$$00000000) refers (Special) to entry5.o(.ARM.Collect$$$$00000004) for _main_scatterload
    entry.o(.ARM.Collect$$$$00000000) refers (Special) to entry2.o(.ARM.Collect$$$$00000001) for _main_stk
    ctype_o.o(.text) refers to ctype_o.o(.constdata) for .constdata
    ctype_o.o(.constdata) refers to ctype_o.o(.constdata) for __ctype_table
    isalnum_o.o(.text) refers to ctype_o.o(.text) for __rt_ctype_table
    isalpha_o.o(.text) refers to ctype_o.o(.text) for __rt_ctype_table
    isblank_o.o(.text) refers to ctype_o.o(.constdata) for __ctype_table
    iscntrl_o.o(.text) refers to ctype_o.o(.text) for __rt_ctype_table
    isdigit_o.o(.text) refers to ctype_o.o(.text) for __rt_ctype_table
    isgraph_o.o(.text) refers to ctype_o.o(.text) for __rt_ctype_table
    islower_o.o(.text) refers to ctype_o.o(.text) for __rt_ctype_table
    isprint_o.o(.text) refers to ctype_o.o(.text) for __rt_ctype_table
    ispunct_o.o(.text) refers to ctype_o.o(.text) for __rt_ctype_table
    isspace_o.o(.text) refers to ctype_o.o(.text) for __rt_ctype_table
    isupper_o.o(.text) refers to ctype_o.o(.text) for __rt_ctype_table
    isxdigit_o.o(.text) refers to ctype_o.o(.text) for __rt_ctype_table
    fadd.o(.text) refers (Special) to iusefp.o(.text) for __I$use$fp
    fadd.o(.text) refers to fepilogue.o(.text) for _float_epilogue
    fmul.o(.text) refers (Special) to iusefp.o(.text) for __I$use$fp
    fdiv.o(.text) refers (Special) to iusefp.o(.text) for __I$use$fp
    fdiv.o(.text) refers to fepilogue.o(.text) for _float_round
    dadd.o(.text) refers (Special) to iusefp.o(.text) for __I$use$fp
    dadd.o(.text) refers to llshl.o(.text) for __aeabi_llsl
    dadd.o(.text) refers to llsshr.o(.text) for __aeabi_lasr
    dadd.o(.text) refers to depilogue.o(.text) for _double_epilogue
    dmul.o(.text) refers (Special) to iusefp.o(.text) for __I$use$fp
    dmul.o(.text) refers to depilogue.o(.text) for _double_epilogue
    ddiv.o(.text) refers (Special) to iusefp.o(.text) for __I$use$fp
    ddiv.o(.text) refers to depilogue.o(.text) for _double_round
    fflti.o(.text) refers (Special) to iusefp.o(.text) for __I$use$fp
    fflti.o(.text) refers to fepilogue.o(.text) for _float_epilogue
    ffltui.o(.text) refers (Special) to iusefp.o(.text) for __I$use$fp
    ffltui.o(.text) refers to fepilogue.o(.text) for _float_epilogue
    ffltul.o(.text) refers (Special) to iusefp.o(.text) for __I$use$fp
    ffltul.o(.text) refers to fepilogue.o(.text) for _float_epilogue
    dflti.o(.text) refers (Special) to iusefp.o(.text) for __I$use$fp
    dflti.o(.text) refers to depilogue.o(.text) for _double_epilogue
    dfltui.o(.text) refers (Special) to iusefp.o(.text) for __I$use$fp
    dfltui.o(.text) refers to depilogue.o(.text) for _double_epilogue
    ffixi.o(.text) refers (Special) to iusefp.o(.text) for __I$use$fp
    dfixi.o(.text) refers (Special) to iusefp.o(.text) for __I$use$fp
    dfixi.o(.text) refers to llushr.o(.text) for __aeabi_llsr
    dfixui.o(.text) refers (Special) to iusefp.o(.text) for __I$use$fp
    dfixui.o(.text) refers to llushr.o(.text) for __aeabi_llsr
    f2d.o(.text) refers (Special) to iusefp.o(.text) for __I$use$fp
    cdcmple.o(.text) refers (Special) to iusefp.o(.text) for __I$use$fp
    cdrcmple.o(.text) refers (Special) to iusefp.o(.text) for __I$use$fp
    d2f.o(.text) refers (Special) to iusefp.o(.text) for __I$use$fp
    d2f.o(.text) refers to fepilogue.o(.text) for _float_round
    cfcmple.o(.text) refers (Special) to iusefp.o(.text) for __I$use$fp
    cfrcmple.o(.text) refers (Special) to iusefp.o(.text) for __I$use$fp
    atan.o(i.__softfp_atan) refers (Special) to iusefp.o(.text) for __I$use$fp
    atan.o(i.__softfp_atan) refers to atan.o(i.atan) for atan
    atan.o(i.atan) refers (Special) to iusefp.o(.text) for __I$use$fp
    atan.o(i.atan) refers to dunder.o(i.__mathlib_dbl_infnan) for __mathlib_dbl_infnan
    atan.o(i.atan) refers to fpclassify.o(i.__ARM_fpclassify) for __ARM_fpclassify
    atan.o(i.atan) refers to dunder.o(i.__mathlib_dbl_underflow) for __mathlib_dbl_underflow
    atan.o(i.atan) refers to dadd.o(.text) for __aeabi_dadd
    atan.o(i.atan) refers to dscalb.o(.text) for __ARM_scalbn
    atan.o(i.atan) refers to ddiv.o(.text) for __aeabi_ddiv
    atan.o(i.atan) refers to dmul.o(.text) for __aeabi_dmul
    atan.o(i.atan) refers to poly.o(i.__kernel_poly) for __kernel_poly
    atan.o(i.atan) refers to atan.o(.constdata) for .constdata
    atan.o(.constdata) refers (Special) to iusefp.o(.text) for __I$use$fp
    atan_x.o(i.____softfp_atan$lsc) refers (Special) to iusefp.o(.text) for __I$use$fp
    atan_x.o(i.____softfp_atan$lsc) refers to atan_x.o(i.__atan$lsc) for __atan$lsc
    atan_x.o(i.__atan$lsc) refers (Special) to iusefp.o(.text) for __I$use$fp
    atan_x.o(i.__atan$lsc) refers to dunder.o(i.__mathlib_dbl_infnan) for __mathlib_dbl_infnan
    atan_x.o(i.__atan$lsc) refers to dadd.o(.text) for __aeabi_dadd
    atan_x.o(i.__atan$lsc) refers to dscalb.o(.text) for __ARM_scalbn
    atan_x.o(i.__atan$lsc) refers to ddiv.o(.text) for __aeabi_ddiv
    atan_x.o(i.__atan$lsc) refers to dmul.o(.text) for __aeabi_dmul
    atan_x.o(i.__atan$lsc) refers to poly.o(i.__kernel_poly) for __kernel_poly
    atan_x.o(i.__atan$lsc) refers to atan_x.o(.constdata) for .constdata
    atan_x.o(.constdata) refers (Special) to iusefp.o(.text) for __I$use$fp
    cos_i.o(i.__kernel_cos) refers (Special) to iusefp.o(.text) for __I$use$fp
    cos_i.o(i.__kernel_cos) refers to dfixi.o(.text) for __aeabi_d2iz
    cos_i.o(i.__kernel_cos) refers to dmul.o(.text) for __aeabi_dmul
    cos_i.o(i.__kernel_cos) refers to poly.o(i.__kernel_poly) for __kernel_poly
    cos_i.o(i.__kernel_cos) refers to dadd.o(.text) for __aeabi_dsub
    cos_i.o(i.__kernel_cos) refers to dscalb.o(.text) for __ARM_scalbn
    cos_i.o(i.__kernel_cos) refers to cos_i.o(.constdata) for .constdata
    cos_i.o(.constdata) refers (Special) to iusefp.o(.text) for __I$use$fp
    dunder.o(i.__mathlib_dbl_divzero) refers to ddiv.o(.text) for __aeabi_ddiv
    dunder.o(i.__mathlib_dbl_infnan) refers to dscalb.o(.text) for __ARM_scalbn
    dunder.o(i.__mathlib_dbl_infnan2) refers to dadd.o(.text) for __aeabi_dadd
    dunder.o(i.__mathlib_dbl_invalid) refers to ddiv.o(.text) for __aeabi_ddiv
    dunder.o(i.__mathlib_dbl_overflow) refers to dscalb.o(.text) for __ARM_scalbn
    dunder.o(i.__mathlib_dbl_posinfnan) refers to dmul.o(.text) for __aeabi_dmul
    dunder.o(i.__mathlib_dbl_underflow) refers to dscalb.o(.text) for __ARM_scalbn
    qnan.o(.constdata) refers (Special) to iusefp.o(.text) for __I$use$fp
    rred.o(i.__ieee754_rem_pio2) refers (Special) to iusefp.o(.text) for __I$use$fp
    rred.o(i.__ieee754_rem_pio2) refers to dadd.o(.text) for __aeabi_dsub
    rred.o(i.__ieee754_rem_pio2) refers to dmul.o(.text) for __aeabi_dmul
    rred.o(i.__ieee754_rem_pio2) refers to dfixi.o(.text) for __aeabi_d2iz
    rred.o(i.__ieee754_rem_pio2) refers to dflti.o(.text) for __aeabi_i2d
    rred.o(i.__ieee754_rem_pio2) refers to dfltui.o(.text) for __aeabi_ui2d
    rred.o(i.__ieee754_rem_pio2) refers to dscalb.o(.text) for __ARM_scalbn
    rred.o(i.__ieee754_rem_pio2) refers to rred.o(.constdata) for .constdata
    rred.o(i.__use_accurate_range_reduction) refers (Special) to iusefp.o(.text) for __I$use$fp
    rred.o(.constdata) refers (Special) to iusefp.o(.text) for __I$use$fp
    sin_i.o(i.__kernel_sin) refers (Special) to iusefp.o(.text) for __I$use$fp
    sin_i.o(i.__kernel_sin) refers to fpclassify.o(i.__ARM_fpclassify) for __ARM_fpclassify
    sin_i.o(i.__kernel_sin) refers to dunder.o(i.__mathlib_dbl_underflow) for __mathlib_dbl_underflow
    sin_i.o(i.__kernel_sin) refers to dmul.o(.text) for __aeabi_dmul
    sin_i.o(i.__kernel_sin) refers to poly.o(i.__kernel_poly) for __kernel_poly
    sin_i.o(i.__kernel_sin) refers to dscalb.o(.text) for __ARM_scalbn
    sin_i.o(i.__kernel_sin) refers to dadd.o(.text) for __aeabi_dsub
    sin_i.o(i.__kernel_sin) refers to sin_i.o(.constdata) for .constdata
    sin_i.o(.constdata) refers (Special) to iusefp.o(.text) for __I$use$fp
    sin_i_x.o(i.____kernel_sin$lsc) refers (Special) to iusefp.o(.text) for __I$use$fp
    sin_i_x.o(i.____kernel_sin$lsc) refers to dmul.o(.text) for __aeabi_dmul
    sin_i_x.o(i.____kernel_sin$lsc) refers to poly.o(i.__kernel_poly) for __kernel_poly
    sin_i_x.o(i.____kernel_sin$lsc) refers to dscalb.o(.text) for __ARM_scalbn
    sin_i_x.o(i.____kernel_sin$lsc) refers to dadd.o(.text) for __aeabi_dsub
    sin_i_x.o(i.____kernel_sin$lsc) refers to sin_i_x.o(.constdata) for .constdata
    sin_i_x.o(.constdata) refers (Special) to iusefp.o(.text) for __I$use$fp
    entry2.o(.ARM.Collect$$$$00000001) refers to entry2.o(.ARM.Collect$$$$00002712) for __lit__00000000
    entry2.o(.ARM.Collect$$$$00002712) refers to startup_stm32f10x_hd.o(STACK) for __initial_sp
    entry2.o(__vectab_stack_and_reset_area) refers to startup_stm32f10x_hd.o(STACK) for __initial_sp
    entry2.o(__vectab_stack_and_reset_area) refers to entry.o(.ARM.Collect$$$$00000000) for __main
    entry5.o(.ARM.Collect$$$$00000004) refers to init.o(.text) for __scatterload
    entry9a.o(.ARM.Collect$$$$0000000B) refers to multiwii.o(i.main) for main
    entry9b.o(.ARM.Collect$$$$0000000C) refers to multiwii.o(i.main) for main
    errno.o(i.__aeabi_errno_addr) refers to errno.o(.data) for .data
    errno.o(i.__read_errno) refers to errno.o(.data) for .data
    errno.o(i.__set_errno) refers to errno.o(.data) for .data
    depilogue.o(.text) refers to llshl.o(.text) for __aeabi_llsl
    depilogue.o(.text) refers to llushr.o(.text) for __aeabi_llsr
    dsqrt.o(.text) refers to llushr.o(.text) for __aeabi_llsr
    dsqrt.o(.text) refers to depilogue.o(.text) for _double_round
    fpclassify.o(i.__ARM_fpclassify) refers (Special) to iusefp.o(.text) for __I$use$fp
    poly.o(i.__kernel_poly) refers (Special) to iusefp.o(.text) for __I$use$fp
    poly.o(i.__kernel_poly) refers to dmul.o(.text) for __aeabi_dmul
    poly.o(i.__kernel_poly) refers to dadd.o(.text) for __aeabi_dadd
    init.o(.text) refers to entry5.o(.ARM.Collect$$$$00000004) for __main_after_scatterload


==============================================================================

Removing Unused input sections from the image.

    Removing alarms.o(i.alarmHandler), (120 bytes).
    Removing alarms.o(i.alarmPatternComposer), (2 bytes).
    Removing alarms.o(i.isBuzzerON), (4 bytes).
    Removing alarms.o(i.patternDecode), (300 bytes).
    Removing alarms.o(i.setTiming), (140 bytes).
    Removing alarms.o(i.toggleResource), (44 bytes).
    Removing alarms.o(i.turnOff), (108 bytes).
    Removing alarms.o(.bss), (70 bytes).
    Removing alarms.o(.data), (23 bytes).
    Removing gps.o(i.GPS_calc_location_error), (68 bytes).
    Removing gps.o(i.GPS_coord_to_degrees), (188 bytes).
    Removing gps.o(i.clear_new_altitude), (12 bytes).
    Removing gps.o(i.get_altitude_error), (20 bytes).
    Removing gps.o(i.grab_fields), (78 bytes).
    Removing gps.o(i.hex_c), (20 bytes).
    Removing gps.o(.constdata), (140 bytes).
    Removing protocol.o(i.SerialWrite16), (28 bytes).
    Removing protocol.o(i.debugmsg_append_str), (2 bytes).
    Removing multiwii.o(i.cam_roll), (176 bytes).
    Removing multiwii.o(i.mission_led), (32 bytes).
    Removing sensors.o(i.Sonar_init), (2 bytes).
    Removing sensors.o(i.Sonar_update), (2 bytes).
    Removing sensors.o(i.i2c_readReg), (24 bytes).
    Removing sensors.o(i.i2c_rep_start), (48 bytes).
    Removing sensors.o(i.i2c_stop), (8 bytes).
    Removing sensors.o(i.i2c_write), (44 bytes).
    Removing serial.o(i.SerialEnd), (6 bytes).
    Removing serial.o(i.SerialTXfree), (36 bytes).
    Removing serial.o(i.SerialWrite), (22 bytes).
    Removing serial.o(i.test_Uart), (64 bytes).
    Removing timer.o(i.TIM1_PWM_Init), (260 bytes).
    Removing timer.o(i.TIM2_Cap_Init), (144 bytes).
    Removing timer.o(i.TIM2_PWM_Init), (204 bytes).
    Removing timer.o(i.TIM8_PWM_Init), (280 bytes).
    Removing timer.o(i.time_init), (12 bytes).
    Removing delay.o(i.delay_1us), (34 bytes).
    Removing delay.o(i.delay_us), (20 bytes).
    Removing re_eeprom.o(i.EEPROM_Single_ReadI2C), (96 bytes).
    Removing re_eeprom.o(i.EEPROM_Single_WriteI2C), (80 bytes).
    Removing sys.o(.emb_text), (2 bytes).
    Removing sys.o(i.Ex_NVIC_Config), (160 bytes).
    Removing sys.o(i.MY_NVIC_Init), (156 bytes).
    Removing sys.o(i.MY_NVIC_PriorityGroupConfig), (40 bytes).
    Removing sys.o(i.Sys_Soft_Reset), (16 bytes).
    Removing sys.o(i.Sys_Standby), (76 bytes).
    Removing gy_86.o(i.EX_Delay_1us), (18 bytes).
    Removing gy_86.o(i.Single_ReadI2C), (136 bytes).
    Removing spl06_001.o(i.SPL06_001_StateMachine), (2 bytes).
    Removing spl06_001.o(i.spl0601_get_calib_param), (484 bytes).
    Removing spl06_001.o(i.spl0601_get_pressure), (280 bytes).
    Removing spl06_001.o(i.spl0601_get_raw_pressure), (108 bytes).
    Removing spl06_001.o(i.spl0601_get_raw_temp), (112 bytes).
    Removing spl06_001.o(i.spl0601_get_temperature), (120 bytes).
    Removing spl06_001.o(i.spl0601_init), (68 bytes).
    Removing spl06_001.o(i.spl0601_rateset), (324 bytes).
    Removing spl06_001.o(i.spl0601_read), (20 bytes).
    Removing spl06_001.o(i.spl0601_start_continuous), (18 bytes).
    Removing spl06_001.o(i.spl0601_start_pressure), (14 bytes).
    Removing spl06_001.o(i.spl0601_start_temperature), (14 bytes).
    Removing spl06_001.o(i.spl0601_write), (20 bytes).
    Removing spl06_001.o(i.user_spl0601_get), (176 bytes).
    Removing spl06_001.o(.bss), (44 bytes).
    Removing spl06_001.o(.data), (28 bytes).
    Removing core_cm3.o(.emb_text), (32 bytes).
    Removing system_stm32f10x.o(i.SystemCoreClockUpdate), (164 bytes).
    Removing system_stm32f10x.o(.data), (20 bytes).
    Removing misc.o(i.NVIC_SystemLPConfig), (32 bytes).
    Removing misc.o(i.SysTick_CLKSourceConfig), (40 bytes).
    Removing startup_stm32f10x_hd.o(HEAP), (2048 bytes).
    Removing usb_ch341.o(i.CTR_HP), (200 bytes).
    Removing usb_ch341.o(i.ClearEPDoubleBuff), (32 bytes).
    Removing usb_ch341.o(i.ClearEP_CTR_RX), (36 bytes).
    Removing usb_ch341.o(i.ClearEP_CTR_TX), (32 bytes).
    Removing usb_ch341.o(i.ClearEP_KIND), (32 bytes).
    Removing usb_ch341.o(i.Enter_LowPowerMode), (12 bytes).
    Removing usb_ch341.o(i.FreeUserBuffer), (80 bytes).
    Removing usb_ch341.o(i.GetBTABLE), (12 bytes).
    Removing usb_ch341.o(i.GetCNTR), (12 bytes).
    Removing usb_ch341.o(i.GetDADDR), (12 bytes).
    Removing usb_ch341.o(i.GetENDPOINT), (20 bytes).
    Removing usb_ch341.o(i.GetEPAddress), (24 bytes).
    Removing usb_ch341.o(i.GetEPDblBuf0Addr), (32 bytes).
    Removing usb_ch341.o(i.GetEPDblBuf0Count), (36 bytes).
    Removing usb_ch341.o(i.GetEPDblBuf1Addr), (32 bytes).
    Removing usb_ch341.o(i.GetEPDblBuf1Count), (36 bytes).
    Removing usb_ch341.o(i.GetEPDblBufDir), (72 bytes).
    Removing usb_ch341.o(i.GetEPRxStatus), (24 bytes).
    Removing usb_ch341.o(i.GetEPTxCount), (36 bytes).
    Removing usb_ch341.o(i.GetEPType), (24 bytes).
    Removing usb_ch341.o(i.GetFNR), (12 bytes).
    Removing usb_ch341.o(i.GetISTR), (12 bytes).
    Removing usb_ch341.o(i.GetRxStallStatus), (36 bytes).
    Removing usb_ch341.o(i.GetTxStallStatus), (32 bytes).
    Removing usb_ch341.o(i.Leave_LowPowerMode), (32 bytes).
    Removing usb_ch341.o(i.PowerOff), (32 bytes).
    Removing usb_ch341.o(i.Resume), (176 bytes).
    Removing usb_ch341.o(i.Resume_Init), (36 bytes).
    Removing usb_ch341.o(i.SetCNTR), (12 bytes).
    Removing usb_ch341.o(i.SetDADDR), (12 bytes).
    Removing usb_ch341.o(i.SetDouBleBuffEPStall), (60 bytes).
    Removing usb_ch341.o(i.SetENDPOINT), (16 bytes).
    Removing usb_ch341.o(i.SetEPAddress), (36 bytes).
    Removing usb_ch341.o(i.SetEPCountRxReg), (48 bytes).
    Removing usb_ch341.o(i.SetEPDblBuf0Addr), (32 bytes).
    Removing usb_ch341.o(i.SetEPDblBuf0Count), (104 bytes).
    Removing usb_ch341.o(i.SetEPDblBuf1Addr), (36 bytes).
    Removing usb_ch341.o(i.SetEPDblBuf1Count), (104 bytes).
    Removing usb_ch341.o(i.SetEPDblBuffAddr), (52 bytes).
    Removing usb_ch341.o(i.SetEPDblBuffCount), (196 bytes).
    Removing usb_ch341.o(i.SetEPDoubleBuff), (36 bytes).
    Removing usb_ch341.o(i.SetEP_KIND), (36 bytes).
    Removing usb_ch341.o(i.SetISTR), (12 bytes).
    Removing usb_ch341.o(i.Set_Status_Out), (36 bytes).
    Removing usb_ch341.o(i.Suspend), (40 bytes).
    Removing usb_ch341.o(i.ToWord), (8 bytes).
    Removing usb_ch341.o(i.ToggleDTOG_RX), (36 bytes).
    Removing usb_ch341.o(i.ToggleDTOG_TX), (36 bytes).
    Removing stm32f10x_gpio.o(i.GPIO_DeInit), (160 bytes).
    Removing stm32f10x_gpio.o(i.GPIO_AFIODeInit), (22 bytes).
    Removing stm32f10x_gpio.o(i.GPIO_StructInit), (16 bytes).
    Removing stm32f10x_gpio.o(i.GPIO_ReadInputDataBit), (14 bytes).
    Removing stm32f10x_gpio.o(i.GPIO_ReadInputData), (6 bytes).
    Removing stm32f10x_gpio.o(i.GPIO_ReadOutputDataBit), (14 bytes).
    Removing stm32f10x_gpio.o(i.GPIO_ReadOutputData), (6 bytes).
    Removing stm32f10x_gpio.o(i.GPIO_WriteBit), (10 bytes).
    Removing stm32f10x_gpio.o(i.GPIO_Write), (4 bytes).
    Removing stm32f10x_gpio.o(i.GPIO_PinLockConfig), (16 bytes).
    Removing stm32f10x_gpio.o(i.GPIO_EventOutputConfig), (28 bytes).
    Removing stm32f10x_gpio.o(i.GPIO_EventOutputCmd), (12 bytes).
    Removing stm32f10x_gpio.o(i.GPIO_PinRemapConfig), (72 bytes).
    Removing stm32f10x_gpio.o(i.GPIO_EXTILineConfig), (40 bytes).
    Removing stm32f10x_rcc.o(i.RCC_DeInit), (60 bytes).
    Removing stm32f10x_rcc.o(i.RCC_HSEConfig), (52 bytes).
    Removing stm32f10x_rcc.o(i.RCC_GetFlagStatus), (48 bytes).
    Removing stm32f10x_rcc.o(i.RCC_WaitForHSEStartUp), (52 bytes).
    Removing stm32f10x_rcc.o(i.RCC_AdjustHSICalibrationValue), (20 bytes).
    Removing stm32f10x_rcc.o(i.RCC_HSICmd), (12 bytes).
    Removing stm32f10x_rcc.o(i.RCC_PLLConfig), (20 bytes).
    Removing stm32f10x_rcc.o(i.RCC_PLLCmd), (12 bytes).
    Removing stm32f10x_rcc.o(i.RCC_SYSCLKConfig), (20 bytes).
    Removing stm32f10x_rcc.o(i.RCC_GetSYSCLKSource), (16 bytes).
    Removing stm32f10x_rcc.o(i.RCC_HCLKConfig), (20 bytes).
    Removing stm32f10x_rcc.o(i.RCC_PCLK1Config), (20 bytes).
    Removing stm32f10x_rcc.o(i.RCC_PCLK2Config), (20 bytes).
    Removing stm32f10x_rcc.o(i.RCC_ITConfig), (24 bytes).
    Removing stm32f10x_rcc.o(i.RCC_ADCCLKConfig), (20 bytes).
    Removing stm32f10x_rcc.o(i.RCC_LSEConfig), (32 bytes).
    Removing stm32f10x_rcc.o(i.RCC_LSICmd), (12 bytes).
    Removing stm32f10x_rcc.o(i.RCC_RTCCLKConfig), (16 bytes).
    Removing stm32f10x_rcc.o(i.RCC_RTCCLKCmd), (12 bytes).
    Removing stm32f10x_rcc.o(i.RCC_AHBPeriphClockCmd), (24 bytes).
    Removing stm32f10x_rcc.o(i.RCC_BackupResetCmd), (12 bytes).
    Removing stm32f10x_rcc.o(i.RCC_ClockSecuritySystemCmd), (12 bytes).
    Removing stm32f10x_rcc.o(i.RCC_MCOConfig), (12 bytes).
    Removing stm32f10x_rcc.o(i.RCC_ClearFlag), (16 bytes).
    Removing stm32f10x_rcc.o(i.RCC_GetITStatus), (20 bytes).
    Removing stm32f10x_rcc.o(i.RCC_ClearITPendingBit), (12 bytes).
    Removing stm32f10x_rcc.o(.data), (8 bytes).
    Removing stm32f10x_tim.o(i.TIM_DeInit), (180 bytes).
    Removing stm32f10x_tim.o(i.TIM_TimeBaseInit), (60 bytes).
    Removing stm32f10x_tim.o(i.TIM_OC1Init), (96 bytes).
    Removing stm32f10x_tim.o(i.TIM_OC2Init), (124 bytes).
    Removing stm32f10x_tim.o(i.TIM_OC3Init), (120 bytes).
    Removing stm32f10x_tim.o(i.TIM_OC4Init), (96 bytes).
    Removing stm32f10x_tim.o(i.TIM_SetIC4Prescaler), (18 bytes).
    Removing stm32f10x_tim.o(i.TIM_SetIC3Prescaler), (16 bytes).
    Removing stm32f10x_tim.o(i.TIM_SetIC2Prescaler), (18 bytes).
    Removing stm32f10x_tim.o(i.TI2_Config), (44 bytes).
    Removing stm32f10x_tim.o(i.TIM_SetIC1Prescaler), (16 bytes).
    Removing stm32f10x_tim.o(i.TIM_ICInit), (162 bytes).
    Removing stm32f10x_tim.o(i.TIM_PWMIConfig), (108 bytes).
    Removing stm32f10x_tim.o(i.TIM_BDTRConfig), (34 bytes).
    Removing stm32f10x_tim.o(i.TIM_TimeBaseStructInit), (18 bytes).
    Removing stm32f10x_tim.o(i.TIM_OCStructInit), (20 bytes).
    Removing stm32f10x_tim.o(i.TIM_ICStructInit), (16 bytes).
    Removing stm32f10x_tim.o(i.TIM_BDTRStructInit), (18 bytes).
    Removing stm32f10x_tim.o(i.TIM_Cmd), (22 bytes).
    Removing stm32f10x_tim.o(i.TIM_CtrlPWMOutputs), (22 bytes).
    Removing stm32f10x_tim.o(i.TIM_ITConfig), (16 bytes).
    Removing stm32f10x_tim.o(i.TIM_GenerateEvent), (4 bytes).
    Removing stm32f10x_tim.o(i.TIM_DMAConfig), (8 bytes).
    Removing stm32f10x_tim.o(i.TIM_DMACmd), (16 bytes).
    Removing stm32f10x_tim.o(i.TIM_InternalClockConfig), (10 bytes).
    Removing stm32f10x_tim.o(i.TIM_SelectInputTrigger), (12 bytes).
    Removing stm32f10x_tim.o(i.TIM_ITRxExternalClockConfig), (20 bytes).
    Removing stm32f10x_tim.o(i.TIM_TIxExternalClockConfig), (46 bytes).
    Removing stm32f10x_tim.o(i.TIM_ETRConfig), (18 bytes).
    Removing stm32f10x_tim.o(i.TIM_ETRClockMode1Config), (18 bytes).
    Removing stm32f10x_tim.o(i.TIM_ETRClockMode2Config), (18 bytes).
    Removing stm32f10x_tim.o(i.TIM_PrescalerConfig), (6 bytes).
    Removing stm32f10x_tim.o(i.TIM_CounterModeConfig), (14 bytes).
    Removing stm32f10x_tim.o(i.TIM_EncoderInterfaceConfig), (44 bytes).
    Removing stm32f10x_tim.o(i.TIM_ForcedOC1Config), (12 bytes).
    Removing stm32f10x_tim.o(i.TIM_ForcedOC2Config), (14 bytes).
    Removing stm32f10x_tim.o(i.TIM_ForcedOC3Config), (12 bytes).
    Removing stm32f10x_tim.o(i.TIM_ForcedOC4Config), (14 bytes).
    Removing stm32f10x_tim.o(i.TIM_ARRPreloadConfig), (22 bytes).
    Removing stm32f10x_tim.o(i.TIM_SelectCOM), (20 bytes).
    Removing stm32f10x_tim.o(i.TIM_SelectCCDMA), (20 bytes).
    Removing stm32f10x_tim.o(i.TIM_CCPreloadControl), (20 bytes).
    Removing stm32f10x_tim.o(i.TIM_OC1PreloadConfig), (12 bytes).
    Removing stm32f10x_tim.o(i.TIM_OC2PreloadConfig), (14 bytes).
    Removing stm32f10x_tim.o(i.TIM_OC3PreloadConfig), (12 bytes).
    Removing stm32f10x_tim.o(i.TIM_OC4PreloadConfig), (14 bytes).
    Removing stm32f10x_tim.o(i.TIM_OC1FastConfig), (12 bytes).
    Removing stm32f10x_tim.o(i.TIM_OC2FastConfig), (14 bytes).
    Removing stm32f10x_tim.o(i.TIM_OC3FastConfig), (12 bytes).
    Removing stm32f10x_tim.o(i.TIM_OC4FastConfig), (14 bytes).
    Removing stm32f10x_tim.o(i.TIM_ClearOC1Ref), (12 bytes).
    Removing stm32f10x_tim.o(i.TIM_ClearOC2Ref), (14 bytes).
    Removing stm32f10x_tim.o(i.TIM_ClearOC3Ref), (12 bytes).
    Removing stm32f10x_tim.o(i.TIM_ClearOC4Ref), (14 bytes).
    Removing stm32f10x_tim.o(i.TIM_OC1PolarityConfig), (12 bytes).
    Removing stm32f10x_tim.o(i.TIM_OC1NPolarityConfig), (12 bytes).
    Removing stm32f10x_tim.o(i.TIM_OC2PolarityConfig), (14 bytes).
    Removing stm32f10x_tim.o(i.TIM_OC2NPolarityConfig), (14 bytes).
    Removing stm32f10x_tim.o(i.TIM_OC3PolarityConfig), (14 bytes).
    Removing stm32f10x_tim.o(i.TIM_OC3NPolarityConfig), (14 bytes).
    Removing stm32f10x_tim.o(i.TIM_OC4PolarityConfig), (14 bytes).
    Removing stm32f10x_tim.o(i.TIM_CCxCmd), (22 bytes).
    Removing stm32f10x_tim.o(i.TIM_CCxNCmd), (22 bytes).
    Removing stm32f10x_tim.o(i.TIM_SelectOCxM), (62 bytes).
    Removing stm32f10x_tim.o(i.TIM_UpdateDisableConfig), (22 bytes).
    Removing stm32f10x_tim.o(i.TIM_UpdateRequestConfig), (22 bytes).
    Removing stm32f10x_tim.o(i.TIM_SelectHallSensor), (20 bytes).
    Removing stm32f10x_tim.o(i.TIM_SelectOnePulseMode), (18 bytes).
    Removing stm32f10x_tim.o(i.TIM_SelectOutputTrigger), (16 bytes).
    Removing stm32f10x_tim.o(i.TIM_SelectSlaveMode), (16 bytes).
    Removing stm32f10x_tim.o(i.TIM_SelectMasterSlaveMode), (16 bytes).
    Removing stm32f10x_tim.o(i.TIM_SetCounter), (4 bytes).
    Removing stm32f10x_tim.o(i.TIM_SetAutoreload), (4 bytes).
    Removing stm32f10x_tim.o(i.TIM_SetCompare3), (4 bytes).
    Removing stm32f10x_tim.o(i.TIM_SetCompare4), (6 bytes).
    Removing stm32f10x_tim.o(i.TIM_SetClockDivision), (14 bytes).
    Removing stm32f10x_tim.o(i.TIM_GetCapture1), (4 bytes).
    Removing stm32f10x_tim.o(i.TIM_GetCapture2), (4 bytes).
    Removing stm32f10x_tim.o(i.TIM_GetCapture3), (4 bytes).
    Removing stm32f10x_tim.o(i.TIM_GetCapture4), (6 bytes).
    Removing stm32f10x_tim.o(i.TIM_GetCounter), (4 bytes).
    Removing stm32f10x_tim.o(i.TIM_GetPrescaler), (4 bytes).
    Removing stm32f10x_tim.o(i.TIM_GetFlagStatus), (14 bytes).
    Removing stm32f10x_tim.o(i.TIM_ClearFlag), (6 bytes).
    Removing stm32f10x_tim.o(i.TIM_GetITStatus), (24 bytes).
    Removing stm32f10x_tim.o(i.TIM_ClearITPendingBit), (6 bytes).
    Removing stm32f10x_tim.o(i.TI1_Config), (40 bytes).
    Removing stm32f10x_usart.o(i.USART_StructInit), (22 bytes).
    Removing stm32f10x_usart.o(i.USART_ClockInit), (30 bytes).
    Removing stm32f10x_usart.o(i.USART_ClockStructInit), (12 bytes).
    Removing stm32f10x_usart.o(i.USART_DMACmd), (16 bytes).
    Removing stm32f10x_usart.o(i.USART_SetAddress), (16 bytes).
    Removing stm32f10x_usart.o(i.USART_WakeUpConfig), (16 bytes).
    Removing stm32f10x_usart.o(i.USART_ReceiverWakeUpCmd), (20 bytes).
    Removing stm32f10x_usart.o(i.USART_LINBreakDetectLengthConfig), (16 bytes).
    Removing stm32f10x_usart.o(i.USART_LINCmd), (20 bytes).
    Removing stm32f10x_usart.o(i.USART_SendData), (8 bytes).
    Removing stm32f10x_usart.o(i.USART_ReceiveData), (8 bytes).
    Removing stm32f10x_usart.o(i.USART_SendBreak), (10 bytes).
    Removing stm32f10x_usart.o(i.USART_SetGuardTime), (16 bytes).
    Removing stm32f10x_usart.o(i.USART_SetPrescaler), (16 bytes).
    Removing stm32f10x_usart.o(i.USART_SmartCardCmd), (20 bytes).
    Removing stm32f10x_usart.o(i.USART_SmartCardNACKCmd), (20 bytes).
    Removing stm32f10x_usart.o(i.USART_HalfDuplexCmd), (20 bytes).
    Removing stm32f10x_usart.o(i.USART_IrDAConfig), (16 bytes).
    Removing stm32f10x_usart.o(i.USART_IrDACmd), (20 bytes).
    Removing stm32f10x_usart.o(i.USART_GetFlagStatus), (14 bytes).
    Removing stm32f10x_usart.o(i.USART_ClearFlag), (6 bytes).
    Removing stm32f10x_usart.o(i.USART_GetITStatus), (62 bytes).
    Removing stm32f10x_usart.o(i.USART_ClearITPendingBit), (12 bytes).

268 unused section(s) (total 13511 bytes) removed from the image.

==============================================================================

Image Symbol Table

    Local Symbols

    Symbol Name                              Value     Ov Type        Size  Object(Section)

    ../clib/../cmprslib/zerorunl2.c          0x00000000   Number         0  __dczerorl2.o ABSOLUTE
    ../clib/microlib/ctype/ctype.c           0x00000000   Number         0  ispunct_o.o ABSOLUTE
    ../clib/microlib/ctype/ctype.c           0x00000000   Number         0  isprint_o.o ABSOLUTE
    ../clib/microlib/ctype/ctype.c           0x00000000   Number         0  islower_o.o ABSOLUTE
    ../clib/microlib/ctype/ctype.c           0x00000000   Number         0  isgraph_o.o ABSOLUTE
    ../clib/microlib/ctype/ctype.c           0x00000000   Number         0  isdigit_o.o ABSOLUTE
    ../clib/microlib/ctype/ctype.c           0x00000000   Number         0  isblank_o.o ABSOLUTE
    ../clib/microlib/ctype/ctype.c           0x00000000   Number         0  isalpha_o.o ABSOLUTE
    ../clib/microlib/ctype/ctype.c           0x00000000   Number         0  iscntrl_o.o ABSOLUTE
    ../clib/microlib/ctype/ctype.c           0x00000000   Number         0  isalnum_o.o ABSOLUTE
    ../clib/microlib/ctype/ctype.c           0x00000000   Number         0  isxdigit_o.o ABSOLUTE
    ../clib/microlib/ctype/ctype.c           0x00000000   Number         0  isupper_o.o ABSOLUTE
    ../clib/microlib/ctype/ctype.c           0x00000000   Number         0  isspace_o.o ABSOLUTE
    ../clib/microlib/ctype/ctype.c           0x00000000   Number         0  ctype_o.o ABSOLUTE
    ../clib/microlib/errno.c                 0x00000000   Number         0  errno.o ABSOLUTE
    ../clib/microlib/init/entry.s            0x00000000   Number         0  entry9b.o ABSOLUTE
    ../clib/microlib/init/entry.s            0x00000000   Number         0  entry10a.o ABSOLUTE
    ../clib/microlib/init/entry.s            0x00000000   Number         0  entry10b.o ABSOLUTE
    ../clib/microlib/init/entry.s            0x00000000   Number         0  entry11a.o ABSOLUTE
    ../clib/microlib/init/entry.s            0x00000000   Number         0  entry.o ABSOLUTE
    ../clib/microlib/init/entry.s            0x00000000   Number         0  entry11b.o ABSOLUTE
    ../clib/microlib/init/entry.s            0x00000000   Number         0  entry2.o ABSOLUTE
    ../clib/microlib/init/entry.s            0x00000000   Number         0  entry5.o ABSOLUTE
    ../clib/microlib/init/entry.s            0x00000000   Number         0  entry7a.o ABSOLUTE
    ../clib/microlib/init/entry.s            0x00000000   Number         0  entry7b.o ABSOLUTE
    ../clib/microlib/init/entry.s            0x00000000   Number         0  entry8a.o ABSOLUTE
    ../clib/microlib/init/entry.s            0x00000000   Number         0  entry8b.o ABSOLUTE
    ../clib/microlib/init/entry.s            0x00000000   Number         0  entry9a.o ABSOLUTE
    ../clib/microlib/longlong.c              0x00000000   Number         0  llushr.o ABSOLUTE
    ../clib/microlib/longlong.c              0x00000000   Number         0  llsshr.o ABSOLUTE
    ../clib/microlib/longlong.c              0x00000000   Number         0  llshl.o ABSOLUTE
    ../clib/microlib/stubs.s                 0x00000000   Number         0  iusefp.o ABSOLUTE
    ../fplib/microlib/d2f.c                  0x00000000   Number         0  d2f.o ABSOLUTE
    ../fplib/microlib/f2d.c                  0x00000000   Number         0  f2d.o ABSOLUTE
    ../fplib/microlib/fpadd.c                0x00000000   Number         0  fadd.o ABSOLUTE
    ../fplib/microlib/fpadd.c                0x00000000   Number         0  dadd.o ABSOLUTE
    ../fplib/microlib/fpdiv.c                0x00000000   Number         0  fdiv.o ABSOLUTE
    ../fplib/microlib/fpdiv.c                0x00000000   Number         0  ddiv.o ABSOLUTE
    ../fplib/microlib/fpepilogue.c           0x00000000   Number         0  fepilogue.o ABSOLUTE
    ../fplib/microlib/fpepilogue.c           0x00000000   Number         0  depilogue.o ABSOLUTE
    ../fplib/microlib/fpfix.c                0x00000000   Number         0  dfixui.o ABSOLUTE
    ../fplib/microlib/fpfix.c                0x00000000   Number         0  dfixi.o ABSOLUTE
    ../fplib/microlib/fpfix.c                0x00000000   Number         0  ffixi.o ABSOLUTE
    ../fplib/microlib/fpflt.c                0x00000000   Number         0  dflti.o ABSOLUTE
    ../fplib/microlib/fpflt.c                0x00000000   Number         0  ffltui.o ABSOLUTE
    ../fplib/microlib/fpflt.c                0x00000000   Number         0  ffltul.o ABSOLUTE
    ../fplib/microlib/fpflt.c                0x00000000   Number         0  dfltui.o ABSOLUTE
    ../fplib/microlib/fpflt.c                0x00000000   Number         0  fflti.o ABSOLUTE
    ../fplib/microlib/fpmul.c                0x00000000   Number         0  fmul.o ABSOLUTE
    ../fplib/microlib/fpmul.c                0x00000000   Number         0  dmul.o ABSOLUTE
    ../fplib/microlib/fpscalb.c              0x00000000   Number         0  dscalb.o ABSOLUTE
    ../fplib/microlib/fpsqrt.c               0x00000000   Number         0  dsqrt.o ABSOLUTE
    ../mathlib/atan.c                        0x00000000   Number         0  atan.o ABSOLUTE
    ../mathlib/atan.c                        0x00000000   Number         0  atan_x.o ABSOLUTE
    ../mathlib/atan2.c                       0x00000000   Number         0  atan2.o ABSOLUTE
    ../mathlib/atan2.c                       0x00000000   Number         0  atan2_x.o ABSOLUTE
    ../mathlib/cos.c                         0x00000000   Number         0  cos_x.o ABSOLUTE
    ../mathlib/cos.c                         0x00000000   Number         0  cos.o ABSOLUTE
    ../mathlib/cos_i.c                       0x00000000   Number         0  cos_i.o ABSOLUTE
    ../mathlib/dunder.c                      0x00000000   Number         0  dunder.o ABSOLUTE
    ../mathlib/fpclassify.c                  0x00000000   Number         0  fpclassify.o ABSOLUTE
    ../mathlib/poly.c                        0x00000000   Number         0  poly.o ABSOLUTE
    ../mathlib/qnan.c                        0x00000000   Number         0  qnan.o ABSOLUTE
    ../mathlib/rred.c                        0x00000000   Number         0  rred.o ABSOLUTE
    ../mathlib/sin.c                         0x00000000   Number         0  sin_x.o ABSOLUTE
    ../mathlib/sin.c                         0x00000000   Number         0  sin.o ABSOLUTE
    ../mathlib/sin_i.c                       0x00000000   Number         0  sin_i_x.o ABSOLUTE
    ../mathlib/sin_i.c                       0x00000000   Number         0  sin_i.o ABSOLUTE
    ../mathlib/sqrt.c                        0x00000000   Number         0  sqrt.o ABSOLUTE
    ../mathlib/sqrt.c                        0x00000000   Number         0  sqrt_x.o ABSOLUTE
    ..\Libraries\CMSIS\CM3\CoreSupport\core_cm3.c 0x00000000   Number         0  core_cm3.o ABSOLUTE
    ..\Libraries\CMSIS\CM3\DeviceSupport\ST\STM32F10x\startup\arm\startup_stm32f10x_hd.s 0x00000000   Number         0  startup_stm32f10x_hd.o ABSOLUTE
    ..\Libraries\STM32F10x_StdPeriph_Driver\src\misc.c 0x00000000   Number         0  misc.o ABSOLUTE
    ..\USB\USB_CH341.c                       0x00000000   Number         0  usb_ch341.o ABSOLUTE
    ..\USB\usart.c                           0x00000000   Number         0  usart.o ABSOLUTE
    ..\USER\SPL06_001.c                      0x00000000   Number         0  spl06_001.o ABSOLUTE
    ..\USER\delay.c                          0x00000000   Number         0  delay.o ABSOLUTE
    ..\USER\gy_86.c                          0x00000000   Number         0  gy_86.o ABSOLUTE
    ..\USER\re_eeprom.c                      0x00000000   Number         0  re_eeprom.o ABSOLUTE
    ..\USER\stm32f10x_it.c                   0x00000000   Number         0  stm32f10x_it.o ABSOLUTE
    ..\USER\sys.c                            0x00000000   Number         0  sys.o ABSOLUTE
    ..\USER\system_stm32f10x.c               0x00000000   Number         0  system_stm32f10x.o ABSOLUTE
    ..\USER\timer.c                          0x00000000   Number         0  timer.o ABSOLUTE
    ..\\Libraries\\CMSIS\\CM3\\CoreSupport\\core_cm3.c 0x00000000   Number         0  core_cm3.o ABSOLUTE
    ..\\USER\\sys.c                          0x00000000   Number         0  sys.o ABSOLUTE
    ..\multiwii_2.4\Alarms.c                 0x00000000   Number         0  alarms.o ABSOLUTE
    ..\multiwii_2.4\EEPROM.c                 0x00000000   Number         0  eeprom.o ABSOLUTE
    ..\multiwii_2.4\GPS.c                    0x00000000   Number         0  gps.o ABSOLUTE
    ..\multiwii_2.4\IMU.c                    0x00000000   Number         0  imu.o ABSOLUTE
    ..\multiwii_2.4\MultiWii.c               0x00000000   Number         0  multiwii.o ABSOLUTE
    ..\multiwii_2.4\Output.c                 0x00000000   Number         0  output.o ABSOLUTE
    ..\multiwii_2.4\Protocol.c               0x00000000   Number         0  protocol.o ABSOLUTE
    ..\multiwii_2.4\RX.c                     0x00000000   Number         0  rx.o ABSOLUTE
    ..\multiwii_2.4\Sensors.c                0x00000000   Number         0  sensors.o ABSOLUTE
    ..\multiwii_2.4\Serial.c                 0x00000000   Number         0  serial.o ABSOLUTE
    cdcmple.s                                0x00000000   Number         0  cdcmple.o ABSOLUTE
    cdrcmple.s                               0x00000000   Number         0  cdrcmple.o ABSOLUTE
    cfcmple.s                                0x00000000   Number         0  cfcmple.o ABSOLUTE
    cfrcmple.s                               0x00000000   Number         0  cfrcmple.o ABSOLUTE
    dc.s                                     0x00000000   Number         0  dc.o ABSOLUTE
    handlers.s                               0x00000000   Number         0  handlers.o ABSOLUTE
    init.s                                   0x00000000   Number         0  init.o ABSOLUTE
    stm32f10x_gpio.c                         0x00000000   Number         0  stm32f10x_gpio.o ABSOLUTE
    stm32f10x_rcc.c                          0x00000000   Number         0  stm32f10x_rcc.o ABSOLUTE
    stm32f10x_tim.c                          0x00000000   Number         0  stm32f10x_tim.o ABSOLUTE
    stm32f10x_usart.c                        0x00000000   Number         0  stm32f10x_usart.o ABSOLUTE
    RESET                                    0x08000000   Section      304  startup_stm32f10x_hd.o(RESET)
    .ARM.Collect$$$$00000000                 0x08000130   Section        0  entry.o(.ARM.Collect$$$$00000000)
    .ARM.Collect$$$$00000001                 0x08000130   Section        4  entry2.o(.ARM.Collect$$$$00000001)
    .ARM.Collect$$$$00000004                 0x08000134   Section        4  entry5.o(.ARM.Collect$$$$00000004)
    .ARM.Collect$$$$00000008                 0x08000138   Section        0  entry7b.o(.ARM.Collect$$$$00000008)
    .ARM.Collect$$$$0000000A                 0x08000138   Section        0  entry8b.o(.ARM.Collect$$$$0000000A)
    .ARM.Collect$$$$0000000B                 0x08000138   Section        8  entry9a.o(.ARM.Collect$$$$0000000B)
    .ARM.Collect$$$$0000000D                 0x08000140   Section        0  entry10a.o(.ARM.Collect$$$$0000000D)
    .ARM.Collect$$$$0000000F                 0x08000140   Section        0  entry11a.o(.ARM.Collect$$$$0000000F)
    .ARM.Collect$$$$00002712                 0x08000140   Section        4  entry2.o(.ARM.Collect$$$$00002712)
    __lit__00000000                          0x08000140   Data           4  entry2.o(.ARM.Collect$$$$00002712)
    .text                                    0x08000144   Section       36  startup_stm32f10x_hd.o(.text)
    .text                                    0x08000168   Section        0  llushr.o(.text)
    .text                                    0x08000188   Section        0  fadd.o(.text)
    .text                                    0x08000238   Section        0  fmul.o(.text)
    .text                                    0x0800029c   Section        0  fdiv.o(.text)
    .text                                    0x08000318   Section        0  dadd.o(.text)
    .text                                    0x08000466   Section        0  dmul.o(.text)
    .text                                    0x0800054a   Section        0  ddiv.o(.text)
    .text                                    0x08000628   Section        0  fflti.o(.text)
    .text                                    0x0800063a   Section        0  ffltui.o(.text)
    .text                                    0x08000644   Section        0  ffltul.o(.text)
    .text                                    0x08000660   Section        0  dflti.o(.text)
    .text                                    0x08000682   Section        0  dfltui.o(.text)
    .text                                    0x0800069c   Section        0  ffixi.o(.text)
    .text                                    0x080006ce   Section        0  dfixi.o(.text)
    .text                                    0x0800070c   Section        0  dfixui.o(.text)
    .text                                    0x0800073e   Section        0  f2d.o(.text)
    .text                                    0x08000764   Section       48  cdcmple.o(.text)
    .text                                    0x08000794   Section       48  cdrcmple.o(.text)
    .text                                    0x080007c4   Section        0  d2f.o(.text)
    .text                                    0x080007fc   Section       20  cfcmple.o(.text)
    .text                                    0x08000810   Section       20  cfrcmple.o(.text)
    .text                                    0x08000824   Section        0  llshl.o(.text)
    .text                                    0x08000842   Section        0  llsshr.o(.text)
    .text                                    0x08000866   Section        0  iusefp.o(.text)
    .text                                    0x08000866   Section        0  fepilogue.o(.text)
    .text                                    0x080008d4   Section        0  depilogue.o(.text)
    .text                                    0x0800098e   Section        0  dsqrt.o(.text)
    .text                                    0x08000a30   Section       36  init.o(.text)
    .text                                    0x08000a54   Section        0  dscalb.o(.text)
    .text                                    0x08000a82   Section        0  __dczerorl2.o(.text)
    i.ACC_Common                             0x08000ad8   Section        0  sensors.o(i.ACC_Common)
    i.ACC_getADC                             0x08000d68   Section        0  sensors.o(i.ACC_getADC)
    i.ACC_init                               0x08000dbc   Section        0  sensors.o(i.ACC_init)
    ACC_init                                 0x08000dbd   Thumb Code    14  sensors.o(i.ACC_init)
    i.ADC1_2_IRQHandler                      0x08000dca   Section        0  stm32f10x_it.o(i.ADC1_2_IRQHandler)
    i.ADC3_IRQHandler                        0x08000dcc   Section        0  stm32f10x_it.o(i.ADC3_IRQHandler)
    i.AT24CXX_Check                          0x08000dd0   Section        0  re_eeprom.o(i.AT24CXX_Check)
    i.AT24CXX_ReadOneByte                    0x08000e14   Section        0  re_eeprom.o(i.AT24CXX_ReadOneByte)
    i.AT24CXX_WriteOneByte                   0x08000e66   Section        0  re_eeprom.o(i.AT24CXX_WriteOneByte)
    i.AT24CXX_write_Page                     0x08000eb2   Section        0  re_eeprom.o(i.AT24CXX_write_Page)
    i.BusFault_Handler                       0x08000fe0   Section        0  stm32f10x_it.o(i.BusFault_Handler)
    i.ByteSwap                               0x08000ffc   Section        0  usb_ch341.o(i.ByteSwap)
    i.CAN1_RX1_IRQHandler                    0x08001008   Section        0  stm32f10x_it.o(i.CAN1_RX1_IRQHandler)
    i.CAN1_SCE_IRQHandler                    0x0800100a   Section        0  stm32f10x_it.o(i.CAN1_SCE_IRQHandler)
    i.CTR_LP                                 0x0800100c   Section        0  usb_ch341.o(i.CTR_LP)
    i.Capture                                0x08001334   Section        0  usart.o(i.Capture)
    i.ClearDTOG_RX                           0x0800149c   Section        0  usb_ch341.o(i.ClearDTOG_RX)
    i.ClearDTOG_TX                           0x080014d0   Section        0  usb_ch341.o(i.ClearDTOG_TX)
    i.Clear_Status_Out                       0x08001504   Section        0  usb_ch341.o(i.Clear_Status_Out)
    i.CradleControl                          0x08001524   Section        0  gps.o(i.CradleControl)
    i.DMA1_Channel1_IRQHandler               0x080017f4   Section        0  stm32f10x_it.o(i.DMA1_Channel1_IRQHandler)
    i.DMA1_Channel2_IRQHandler               0x080017f6   Section        0  stm32f10x_it.o(i.DMA1_Channel2_IRQHandler)
    i.DMA1_Channel3_IRQHandler               0x080017f8   Section        0  stm32f10x_it.o(i.DMA1_Channel3_IRQHandler)
    i.DMA1_Channel4_IRQHandler               0x080017fa   Section        0  stm32f10x_it.o(i.DMA1_Channel4_IRQHandler)
    i.DMA1_Channel5_IRQHandler               0x080017fc   Section        0  stm32f10x_it.o(i.DMA1_Channel5_IRQHandler)
    i.DMA1_Channel6_IRQHandler               0x080017fe   Section        0  stm32f10x_it.o(i.DMA1_Channel6_IRQHandler)
    i.DMA1_Channel7_IRQHandler               0x08001800   Section        0  stm32f10x_it.o(i.DMA1_Channel7_IRQHandler)
    i.DMA2_Channel1_IRQHandler               0x08001802   Section        0  stm32f10x_it.o(i.DMA2_Channel1_IRQHandler)
    i.DMA2_Channel2_IRQHandler               0x08001804   Section        0  stm32f10x_it.o(i.DMA2_Channel2_IRQHandler)
    i.DMA2_Channel3_IRQHandler               0x08001806   Section        0  stm32f10x_it.o(i.DMA2_Channel3_IRQHandler)
    i.DMA2_Channel4_5_IRQHandler             0x08001808   Section        0  stm32f10x_it.o(i.DMA2_Channel4_5_IRQHandler)
    i.DataStageIn                            0x0800180c   Section        0  usb_ch341.o(i.DataStageIn)
    DataStageIn                              0x0800180d   Thumb Code   166  usb_ch341.o(i.DataStageIn)
    i.DataStageOut                           0x080018cc   Section        0  usb_ch341.o(i.DataStageOut)
    DataStageOut                             0x080018cd   Thumb Code   166  usb_ch341.o(i.DataStageOut)
    i.Data_Setup0                            0x08001988   Section        0  usb_ch341.o(i.Data_Setup0)
    Data_Setup0                              0x08001989   Thumb Code   628  usb_ch341.o(i.Data_Setup0)
    i.DebugMon_Handler                       0x08001c20   Section        0  stm32f10x_it.o(i.DebugMon_Handler)
    i.Delay_1us                              0x08001c22   Section        0  gy_86.o(i.Delay_1us)
    i.Device_Mag_getADC                      0x08001c34   Section        0  sensors.o(i.Device_Mag_getADC)
    Device_Mag_getADC                        0x08001c35   Thumb Code    80  sensors.o(i.Device_Mag_getADC)
    i.EEPROM_Delay_1us                       0x08001c8c   Section        0  re_eeprom.o(i.EEPROM_Delay_1us)
    i.EEPROM_I2C_GPIO_Config                 0x08001cac   Section        0  re_eeprom.o(i.EEPROM_I2C_GPIO_Config)
    i.EEPROM_I2C_RecvByte                    0x08001ce4   Section        0  re_eeprom.o(i.EEPROM_I2C_RecvByte)
    i.EEPROM_I2C_SendACK                     0x08001d44   Section        0  re_eeprom.o(i.EEPROM_I2C_SendACK)
    i.EEPROM_I2C_SendByte                    0x08001d98   Section        0  re_eeprom.o(i.EEPROM_I2C_SendByte)
    i.EEPROM_I2C_Start                       0x08001e08   Section        0  re_eeprom.o(i.EEPROM_I2C_Start)
    i.EEPROM_I2C_Stop                        0x08001e94   Section        0  re_eeprom.o(i.EEPROM_I2C_Stop)
    i.EEPROM_I2C_WaitAck                     0x08001ee4   Section        0  re_eeprom.o(i.EEPROM_I2C_WaitAck)
    i.EP1_IN_Callback                        0x08001f6c   Section        0  usb_ch341.o(i.EP1_IN_Callback)
    i.EP2_IN_Callback                        0x08001f6e   Section        0  usb_ch341.o(i.EP2_IN_Callback)
    i.EP2_OUT_Callback                       0x08001f70   Section        0  usb_ch341.o(i.EP2_OUT_Callback)
    i.EXTI0_IRQHandler                       0x08001f9c   Section        0  stm32f10x_it.o(i.EXTI0_IRQHandler)
    i.EXTI15_10_IRQHandler                   0x08001f9e   Section        0  stm32f10x_it.o(i.EXTI15_10_IRQHandler)
    i.EXTI2_IRQHandler                       0x08001fa0   Section        0  stm32f10x_it.o(i.EXTI2_IRQHandler)
    i.EXTI3_IRQHandler                       0x08001fa2   Section        0  stm32f10x_it.o(i.EXTI3_IRQHandler)
    i.EXTI9_5_IRQHandler                     0x08001fa4   Section        0  stm32f10x_it.o(i.EXTI9_5_IRQHandler)
    i.FLASH_IRQHandler                       0x08001fa6   Section        0  stm32f10x_it.o(i.FLASH_IRQHandler)
    i.FSMC_IRQHandler                        0x08001fa8   Section        0  stm32f10x_it.o(i.FSMC_IRQHandler)
    i.FW_NAV                                 0x08001fac   Section        0  gps.o(i.FW_NAV)
    i.FW_NavSpeed                            0x08002994   Section        0  gps.o(i.FW_NavSpeed)
    i.GPIO_Configuration                     0x08002a90   Section        0  multiwii.o(i.GPIO_Configuration)
    i.GPIO_Init                              0x08002abc   Section        0  stm32f10x_gpio.o(i.GPIO_Init)
    i.GPIO_ResetBits                         0x08002b5c   Section        0  stm32f10x_gpio.o(i.GPIO_ResetBits)
    i.GPIO_SetBits                           0x08002b60   Section        0  stm32f10x_gpio.o(i.GPIO_SetBits)
    i.GPS_Compute                            0x08002b64   Section        0  gps.o(i.GPS_Compute)
    i.GPS_adjust_heading                     0x08003620   Section        0  gps.o(i.GPS_adjust_heading)
    i.GPS_bearing                            0x080036ec   Section        0  gps.o(i.GPS_bearing)
    GPS_bearing                              0x080036ed   Thumb Code   150  gps.o(i.GPS_bearing)
    i.GPS_calc_desired_speed                 0x08003790   Section        0  gps.o(i.GPS_calc_desired_speed)
    GPS_calc_desired_speed                   0x08003791   Thumb Code   126  gps.o(i.GPS_calc_desired_speed)
    i.GPS_calc_longitude_scaling             0x08003824   Section        0  gps.o(i.GPS_calc_longitude_scaling)
    i.GPS_calc_nav_rate                      0x08003868   Section        0  gps.o(i.GPS_calc_nav_rate)
    GPS_calc_nav_rate                        0x08003869   Thumb Code   464  gps.o(i.GPS_calc_nav_rate)
    i.GPS_calc_poshold                       0x08003a6c   Section        0  gps.o(i.GPS_calc_poshold)
    GPS_calc_poshold                         0x08003a6d   Thumb Code   292  gps.o(i.GPS_calc_poshold)
    i.GPS_calc_velocity                      0x08003bbc   Section        0  gps.o(i.GPS_calc_velocity)
    GPS_calc_velocity                        0x08003bbd   Thumb Code   280  gps.o(i.GPS_calc_velocity)
    i.GPS_distance_cm                        0x08003cfc   Section        0  gps.o(i.GPS_distance_cm)
    GPS_distance_cm                          0x08003cfd   Thumb Code   122  gps.o(i.GPS_distance_cm)
    i.GPS_newFrame                           0x08003d80   Section        0  gps.o(i.GPS_newFrame)
    i.GPS_reset_home_position                0x08003f54   Section        0  gps.o(i.GPS_reset_home_position)
    i.GPS_reset_nav                          0x08003fb0   Section        0  gps.o(i.GPS_reset_nav)
    i.GPS_set_next_wp                        0x08004064   Section        0  gps.o(i.GPS_set_next_wp)
    i.GPS_set_pids                           0x080041dc   Section        0  gps.o(i.GPS_set_pids)
    i.GPS_update_crosstrack                  0x0800438c   Section        0  gps.o(i.GPS_update_crosstrack)
    GPS_update_crosstrack                    0x0800438d   Thumb Code   202  gps.o(i.GPS_update_crosstrack)
    i.GYRO_Common                            0x08004478   Section        0  sensors.o(i.GYRO_Common)
    i.GetEPRxAddr                            0x0800455c   Section        0  usb_ch341.o(i.GetEPRxAddr)
    i.GetEPRxCount                           0x0800457c   Section        0  usb_ch341.o(i.GetEPRxCount)
    i.GetEPTxAddr                            0x080045a0   Section        0  usb_ch341.o(i.GetEPTxAddr)
    i.GetEPTxStatus                          0x080045c0   Section        0  usb_ch341.o(i.GetEPTxStatus)
    i.Get_SerialNum                          0x080045d8   Section        0  usb_ch341.o(i.Get_SerialNum)
    i.Gyro_getADC                            0x08004620   Section        0  sensors.o(i.Gyro_getADC)
    i.Gyro_init                              0x08004678   Section        0  sensors.o(i.Gyro_init)
    Gyro_init                                0x08004679   Thumb Code    60  sensors.o(i.Gyro_init)
    i.HardFault_Handler                      0x080046b4   Section        0  stm32f10x_it.o(i.HardFault_Handler)
    i.I2C2_ER_IRQHandler                     0x080046e0   Section        0  stm32f10x_it.o(i.I2C2_ER_IRQHandler)
    i.I2C2_EV_IRQHandler                     0x080046e2   Section        0  stm32f10x_it.o(i.I2C2_EV_IRQHandler)
    i.I2C_GPIO_Config                        0x080046e4   Section        0  gy_86.o(i.I2C_GPIO_Config)
    i.I2C_RecvByte                           0x08004710   Section        0  gy_86.o(i.I2C_RecvByte)
    i.I2C_SendACK                            0x08004770   Section        0  gy_86.o(i.I2C_SendACK)
    i.I2C_SendByte                           0x080047c4   Section        0  gy_86.o(i.I2C_SendByte)
    i.I2C_Start                              0x0800483c   Section        0  gy_86.o(i.I2C_Start)
    i.I2C_Stop                               0x080048c8   Section        0  gy_86.o(i.I2C_Stop)
    i.I2C_WaitAck                            0x08004918   Section        0  gy_86.o(i.I2C_WaitAck)
    i.In0_Process                            0x080049a0   Section        0  usb_ch341.o(i.In0_Process)
    i.InvSqrt                                0x08004a10   Section        0  imu.o(i.InvSqrt)
    i.JTAG_Set                               0x08004a5c   Section        0  sys.o(i.JTAG_Set)
    i.LED_init                               0x08004a8c   Section        0  multiwii.o(i.LED_init)
    i.LoadDefaults                           0x08004ae0   Section        0  eeprom.o(i.LoadDefaults)
    i.MYRCC_DeInit                           0x08004c34   Section        0  sys.o(i.MYRCC_DeInit)
    i.MY_NVIC_SetVectorTable                 0x08004c9c   Section        0  sys.o(i.MY_NVIC_SetVectorTable)
    i.Mag_getADC                             0x08004cb0   Section        0  sensors.o(i.Mag_getADC)
    i.Mag_init                               0x08004e3c   Section        0  sensors.o(i.Mag_init)
    Mag_init                                 0x08004e3d   Thumb Code    26  sensors.o(i.Mag_init)
    i.MemManage_Handler                      0x08004e58   Section        0  stm32f10x_it.o(i.MemManage_Handler)
    i.NMI_Handler                            0x08004e74   Section        0  stm32f10x_it.o(i.NMI_Handler)
    i.NOP_Process                            0x08004e8c   Section        0  usb_ch341.o(i.NOP_Process)
    i.NVIC_Init                              0x08004e90   Section        0  misc.o(i.NVIC_Init)
    i.NVIC_PriorityGroupConfig               0x08004f00   Section        0  misc.o(i.NVIC_PriorityGroupConfig)
    i.NVIC_SetVectorTable                    0x08004f14   Section        0  misc.o(i.NVIC_SetVectorTable)
    i.NoData_Setup0                          0x08004f28   Section        0  usb_ch341.o(i.NoData_Setup0)
    NoData_Setup0                            0x08004f29   Thumb Code   302  usb_ch341.o(i.NoData_Setup0)
    i.Out0_Process                           0x0800506c   Section        0  usb_ch341.o(i.Out0_Process)
    i.PMAToUserBufferCopy                    0x080050bc   Section        0  usb_ch341.o(i.PMAToUserBufferCopy)
    i.PVD_IRQHandler                         0x080050e4   Section        0  stm32f10x_it.o(i.PVD_IRQHandler)
    i.PendSV_Handler                         0x080050e6   Section        0  stm32f10x_it.o(i.PendSV_Handler)
    i.Post0_Process                          0x080050e8   Section        0  usb_ch341.o(i.Post0_Process)
    i.PowerOn                                0x08005130   Section        0  usb_ch341.o(i.PowerOn)
    i.RCC_APB1PeriphClockCmd                 0x08005170   Section        0  stm32f10x_rcc.o(i.RCC_APB1PeriphClockCmd)
    i.RCC_APB1PeriphResetCmd                 0x08005188   Section        0  stm32f10x_rcc.o(i.RCC_APB1PeriphResetCmd)
    i.RCC_APB2PeriphClockCmd                 0x080051a0   Section        0  stm32f10x_rcc.o(i.RCC_APB2PeriphClockCmd)
    i.RCC_APB2PeriphResetCmd                 0x080051b8   Section        0  stm32f10x_rcc.o(i.RCC_APB2PeriphResetCmd)
    i.RCC_GetClocksFreq                      0x080051d0   Section        0  stm32f10x_rcc.o(i.RCC_GetClocksFreq)
    i.RCC_IRQHandler                         0x08005264   Section        0  stm32f10x_it.o(i.RCC_IRQHandler)
    i.RCC_USBCLKConfig                       0x08005268   Section        0  stm32f10x_rcc.o(i.RCC_USBCLKConfig)
    i.RTCAlarm_IRQHandler                    0x08005274   Section        0  stm32f10x_it.o(i.RTCAlarm_IRQHandler)
    i.RTC_IRQHandler                         0x08005276   Section        0  stm32f10x_it.o(i.RTC_IRQHandler)
    i.SDIO_IRQHandler                        0x08005278   Section        0  stm32f10x_it.o(i.SDIO_IRQHandler)
    i.SPI1_IRQHandler                        0x0800527a   Section        0  stm32f10x_it.o(i.SPI1_IRQHandler)
    i.SPI2_IRQHandler                        0x0800527c   Section        0  stm32f10x_it.o(i.SPI2_IRQHandler)
    i.SPI3_IRQHandler                        0x0800527e   Section        0  stm32f10x_it.o(i.SPI3_IRQHandler)
    i.SVC_Handler                            0x08005280   Section        0  stm32f10x_it.o(i.SVC_Handler)
    i.SerialAvailable                        0x08005284   Section        0  serial.o(i.SerialAvailable)
    i.SerialRead                             0x080052c8   Section        0  serial.o(i.SerialRead)
    i.SerialSerialize                        0x08005314   Section        0  serial.o(i.SerialSerialize)
    i.SerialUsedTXBuff                       0x08005340   Section        0  serial.o(i.SerialUsedTXBuff)
    i.SetBTABLE                              0x08005384   Section        0  usb_ch341.o(i.SetBTABLE)
    i.SetDeviceAddress                       0x08005394   Section        0  usb_ch341.o(i.SetDeviceAddress)
    i.SetEPRxAddr                            0x080053e0   Section        0  usb_ch341.o(i.SetEPRxAddr)
    i.SetEPRxCount                           0x08005404   Section        0  usb_ch341.o(i.SetEPRxCount)
    i.SetEPRxStatus                          0x08005450   Section        0  usb_ch341.o(i.SetEPRxStatus)
    i.SetEPRxValid                           0x08005488   Section        0  usb_ch341.o(i.SetEPRxValid)
    i.SetEPTxAddr                            0x080054b4   Section        0  usb_ch341.o(i.SetEPTxAddr)
    i.SetEPTxCount                           0x080054d4   Section        0  usb_ch341.o(i.SetEPTxCount)
    i.SetEPTxStatus                          0x080054f0   Section        0  usb_ch341.o(i.SetEPTxStatus)
    i.SetEPTxValid                           0x08005528   Section        0  usb_ch341.o(i.SetEPTxValid)
    i.SetEPType                              0x08005554   Section        0  usb_ch341.o(i.SetEPType)
    i.SetSysClock                            0x08005578   Section        0  system_stm32f10x.o(i.SetSysClock)
    SetSysClock                              0x08005579   Thumb Code     8  system_stm32f10x.o(i.SetSysClock)
    i.SetSysClockTo72                        0x08005580   Section        0  system_stm32f10x.o(i.SetSysClockTo72)
    SetSysClockTo72                          0x08005581   Thumb Code   214  system_stm32f10x.o(i.SetSysClockTo72)
    i.Set_USBClock                           0x08005660   Section        0  usb_ch341.o(i.Set_USBClock)
    i.Setup0_Process                         0x08005674   Section        0  usb_ch341.o(i.Setup0_Process)
    i.Single_WriteI2C                        0x08005724   Section        0  gy_86.o(i.Single_WriteI2C)
    i.Standard_ClearFeature                  0x0800579c   Section        0  usb_ch341.o(i.Standard_ClearFeature)
    i.Standard_GetConfiguration              0x080058f8   Section        0  usb_ch341.o(i.Standard_GetConfiguration)
    i.Standard_GetDescriptorData             0x08005924   Section        0  usb_ch341.o(i.Standard_GetDescriptorData)
    i.Standard_GetInterface                  0x08005948   Section        0  usb_ch341.o(i.Standard_GetInterface)
    i.Standard_GetStatus                     0x08005974   Section        0  usb_ch341.o(i.Standard_GetStatus)
    i.Standard_SetConfiguration              0x08005a64   Section        0  usb_ch341.o(i.Standard_SetConfiguration)
    i.Standard_SetDeviceFeature              0x08005aac   Section        0  usb_ch341.o(i.Standard_SetDeviceFeature)
    i.Standard_SetEndPointFeature            0x08005ad4   Section        0  usb_ch341.o(i.Standard_SetEndPointFeature)
    i.Standard_SetInterface                  0x08005b94   Section        0  usb_ch341.o(i.Standard_SetInterface)
    i.Stm32_Clock_Init                       0x08005c00   Section        0  sys.o(i.Stm32_Clock_Init)
    i.SysTick_Handler                        0x08005c90   Section        0  timer.o(i.SysTick_Handler)
    i.SystemInit                             0x08005cd8   Section        0  system_stm32f10x.o(i.SystemInit)
    i.TAMPER_IRQHandler                      0x08005d38   Section        0  stm32f10x_it.o(i.TAMPER_IRQHandler)
    i.TIM1_BRK_IRQHandler                    0x08005d3a   Section        0  stm32f10x_it.o(i.TIM1_BRK_IRQHandler)
    i.TIM1_TRG_COM_IRQHandler                0x08005d3c   Section        0  stm32f10x_it.o(i.TIM1_TRG_COM_IRQHandler)
    i.TIM1_UP_IRQHandler                     0x08005d3e   Section        0  stm32f10x_it.o(i.TIM1_UP_IRQHandler)
    i.TIM3_IRQHandler                        0x08005d40   Section        0  stm32f10x_it.o(i.TIM3_IRQHandler)
    i.TIM3_PWM_Init                          0x08005d44   Section        0  timer.o(i.TIM3_PWM_Init)
    i.TIM4_IRQHandler                        0x08005e5c   Section        0  stm32f10x_it.o(i.TIM4_IRQHandler)
    i.TIM4_PWM_Init                          0x08005e60   Section        0  timer.o(i.TIM4_PWM_Init)
    i.TIM6_IRQHandler                        0x08005f6c   Section        0  stm32f10x_it.o(i.TIM6_IRQHandler)
    i.TIM7_IRQHandler                        0x08005f6e   Section        0  stm32f10x_it.o(i.TIM7_IRQHandler)
    i.TIM8_BRK_IRQHandler                    0x08005f70   Section        0  stm32f10x_it.o(i.TIM8_BRK_IRQHandler)
    i.TIM8_CC_IRQHandler                     0x08005f72   Section        0  stm32f10x_it.o(i.TIM8_CC_IRQHandler)
    i.TIM8_TRG_COM_IRQHandler                0x08005f74   Section        0  stm32f10x_it.o(i.TIM8_TRG_COM_IRQHandler)
    i.TIM8_UP_IRQHandler                     0x08005f76   Section        0  stm32f10x_it.o(i.TIM8_UP_IRQHandler)
    i.TIM_SetCompare1                        0x08005f78   Section        0  stm32f10x_tim.o(i.TIM_SetCompare1)
    i.TIM_SetCompare2                        0x08005f7c   Section        0  stm32f10x_tim.o(i.TIM_SetCompare2)
    i.USART1_IRQHandler                      0x08005f80   Section        0  usart.o(i.USART1_IRQHandler)
    i.USART2_Configuration                   0x08005fa4   Section        0  usart.o(i.USART2_Configuration)
    i.USART2_IRQHandler                      0x08006048   Section        0  usart.o(i.USART2_IRQHandler)
    i.USART3_Configuration                   0x0800606c   Section        0  usart.o(i.USART3_Configuration)
    i.USART3_IRQHandler                      0x08006118   Section        0  usart.o(i.USART3_IRQHandler)
    i.USART_Cmd                              0x080061b4   Section        0  stm32f10x_usart.o(i.USART_Cmd)
    i.USART_DeInit                           0x080061c8   Section        0  stm32f10x_usart.o(i.USART_DeInit)
    i.USART_ITConfig                         0x08006234   Section        0  stm32f10x_usart.o(i.USART_ITConfig)
    i.USART_Init                             0x08006264   Section        0  stm32f10x_usart.o(i.USART_Init)
    i.USBWakeUp_IRQHandler                   0x080062ec   Section        0  stm32f10x_it.o(i.USBWakeUp_IRQHandler)
    i.USB_CH341_Init                         0x080062ee   Section        0  usb_ch341.o(i.USB_CH341_Init)
    i.USB_Cable_Config                       0x08006300   Section        0  usb_ch341.o(i.USB_Cable_Config)
    i.USB_HP_CAN1_TX_IRQHandler              0x08006320   Section        0  stm32f10x_it.o(i.USB_HP_CAN1_TX_IRQHandler)
    i.USB_Init                               0x08006324   Section        0  usb_ch341.o(i.USB_Init)
    i.USB_Interrupts_Config                  0x08006390   Section        0  usb_ch341.o(i.USB_Interrupts_Config)
    i.USB_LP_CAN1_RX0_IRQHandler             0x080063d4   Section        0  usb_ch341.o(i.USB_LP_CAN1_RX0_IRQHandler)
    i.USB_receive                            0x08006448   Section        0  usb_ch341.o(i.USB_receive)
    i.USB_send                               0x0800646c   Section        0  usb_ch341.o(i.USB_send)
    i.UartSendData                           0x080064b0   Section        0  serial.o(i.UartSendData)
    i.UsageFault_Handler                     0x08006698   Section        0  stm32f10x_it.o(i.UsageFault_Handler)
    i.UserToPMABufferCopy                    0x080066b4   Section        0  usb_ch341.o(i.UserToPMABufferCopy)
    i.Vender_Handle_CH341                    0x080066ec   Section        0  usb_ch341.o(i.Vender_Handle_CH341)
    i.Virtual_Com_Port_Data_Setup            0x08006778   Section        0  usb_ch341.o(i.Virtual_Com_Port_Data_Setup)
    i.Virtual_Com_Port_GetConfigDescriptor   0x080067ec   Section        0  usb_ch341.o(i.Virtual_Com_Port_GetConfigDescriptor)
    i.Virtual_Com_Port_GetDeviceDescriptor   0x08006800   Section        0  usb_ch341.o(i.Virtual_Com_Port_GetDeviceDescriptor)
    i.Virtual_Com_Port_GetLineCoding         0x08006814   Section        0  usb_ch341.o(i.Virtual_Com_Port_GetLineCoding)
    i.Virtual_Com_Port_GetStringDescriptor   0x08006830   Section        0  usb_ch341.o(i.Virtual_Com_Port_GetStringDescriptor)
    i.Virtual_Com_Port_Get_Interface_Setting 0x08006858   Section        0  usb_ch341.o(i.Virtual_Com_Port_Get_Interface_Setting)
    i.Virtual_Com_Port_NoData_Setup          0x08006870   Section        0  usb_ch341.o(i.Virtual_Com_Port_NoData_Setup)
    i.Virtual_Com_Port_Reset                 0x08006978   Section        0  usb_ch341.o(i.Virtual_Com_Port_Reset)
    i.Virtual_Com_Port_SetConfiguration      0x08006a50   Section        0  usb_ch341.o(i.Virtual_Com_Port_SetConfiguration)
    i.Virtual_Com_Port_SetDeviceAddress      0x08006a68   Section        0  usb_ch341.o(i.Virtual_Com_Port_SetDeviceAddress)
    i.Virtual_Com_Port_SetLineCoding         0x08006a74   Section        0  usb_ch341.o(i.Virtual_Com_Port_SetLineCoding)
    i.Virtual_Com_Port_Status_In             0x08006a90   Section        0  usb_ch341.o(i.Virtual_Com_Port_Status_In)
    i.Virtual_Com_Port_Status_Out            0x08006aa4   Section        0  usb_ch341.o(i.Virtual_Com_Port_Status_Out)
    i.Virtual_Com_Port_init                  0x08006aa8   Section        0  usb_ch341.o(i.Virtual_Com_Port_init)
    i.WWDG_IRQHandler                        0x08006aec   Section        0  stm32f10x_it.o(i.WWDG_IRQHandler)
    i.__ARM_fpclassify                       0x08006aee   Section        0  fpclassify.o(i.__ARM_fpclassify)
    i.__ieee754_rem_pio2                     0x08006b18   Section        0  rred.o(i.__ieee754_rem_pio2)
    i.__kernel_cos                           0x08006ea0   Section        0  cos_i.o(i.__kernel_cos)
    i.__kernel_poly                          0x08006f9c   Section        0  poly.o(i.__kernel_poly)
    i.__kernel_sin                           0x08007048   Section        0  sin_i.o(i.__kernel_sin)
    i.__mathlib_dbl_infnan                   0x08007134   Section        0  dunder.o(i.__mathlib_dbl_infnan)
    i.__mathlib_dbl_infnan2                  0x0800713a   Section        0  dunder.o(i.__mathlib_dbl_infnan2)
    i.__mathlib_dbl_invalid                  0x0800713e   Section        0  dunder.o(i.__mathlib_dbl_invalid)
    i.__mathlib_dbl_underflow                0x0800714c   Section        0  dunder.o(i.__mathlib_dbl_underflow)
    i.__scatterload_copy                     0x0800715c   Section       14  handlers.o(i.__scatterload_copy)
    i.__scatterload_null                     0x0800716a   Section        2  handlers.o(i.__scatterload_null)
    i.__scatterload_zeroinit                 0x0800716c   Section       14  handlers.o(i.__scatterload_zeroinit)
    i.__set_errno                            0x0800717c   Section        0  errno.o(i.__set_errno)
    i._atan2                                 0x08007188   Section        0  imu.o(i._atan2)
    i.abort_mission                          0x08007270   Section        0  gps.o(i.abort_mission)
    i.annexCode                              0x08007298   Section        0  multiwii.o(i.annexCode)
    i.atan                                   0x080075d4   Section        0  atan.o(i.atan)
    i.atan2                                  0x080077f4   Section        0  atan2.o(i.atan2)
    i.blinkLED                               0x08007974   Section        0  alarms.o(i.blinkLED)
    i.calculate_sum                          0x080079c0   Section        0  eeprom.o(i.calculate_sum)
    i.check_land                             0x080079dc   Section        0  gps.o(i.check_land)
    i.check_missed_wp                        0x08007a68   Section        0  gps.o(i.check_missed_wp)
    check_missed_wp                          0x08007a69   Thumb Code    46  gps.o(i.check_missed_wp)
    i.clearNav                               0x08007aa0   Section        0  gps.o(i.clearNav)
    i.computeIMU                             0x08007ae8   Section        0  imu.o(i.computeIMU)
    i.computeRC                              0x08007b90   Section        0  rx.o(i.computeRC)
    i.configureReceiver                      0x08007c98   Section        0  rx.o(i.configureReceiver)
    i.constrain_int16                        0x08007c9a   Section        0  gps.o(i.constrain_int16)
    i.cos                                    0x08007cb0   Section        0  cos.o(i.cos)
    i.delay                                  0x08007d4c   Section        0  delay.o(i.delay)
    i.delay_ms                               0x08007d60   Section        0  delay.o(i.delay_ms)
    i.eeprom_Continuous_reading              0x08007d74   Section        0  re_eeprom.o(i.eeprom_Continuous_reading)
    i.eeprom_read_block                      0x08007de4   Section        0  re_eeprom.o(i.eeprom_read_block)
    i.eeprom_write_block                     0x08007e0c   Section        0  re_eeprom.o(i.eeprom_write_block)
    i.evaluateCommand                        0x08007e34   Section        0  protocol.o(i.evaluateCommand)
    i.evaluateOtherData                      0x080089cc   Section        0  protocol.o(i.evaluateOtherData)
    i.force_new_altitude                     0x080089e4   Section        0  gps.o(i.force_new_altitude)
    i.getEstimatedAttitude                   0x08008a00   Section        0  imu.o(i.getEstimatedAttitude)
    i.getMaxWPNumber                         0x08008d50   Section        0  eeprom.o(i.getMaxWPNumber)
    i.get_D                                  0x08008d6c   Section        0  gps.o(i.get_D)
    i.get_I                                  0x08008dd8   Section        0  gps.o(i.get_I)
    i.get_P                                  0x08008e38   Section        0  gps.o(i.get_P)
    i.get_middle                             0x08008e58   Section        0  output.o(i.get_middle)
    i.get_new_altitude                       0x08008eac   Section        0  gps.o(i.get_new_altitude)
    i.get_position                           0x08008fd4   Section        0  gps.o(i.get_position)
    get_position                             0x08008fd5   Thumb Code   166  gps.o(i.get_position)
    i.go_arm                                 0x08009084   Section        0  multiwii.o(i.go_arm)
    i.go_disarm                              0x080090f4   Section        0  multiwii.o(i.go_disarm)
    i.headSerialError                        0x08009110   Section        0  protocol.o(i.headSerialError)
    headSerialError                          0x08009111   Thumb Code    12  protocol.o(i.headSerialError)
    i.headSerialReply                        0x0800911c   Section        0  protocol.o(i.headSerialReply)
    headSerialReply                          0x0800911d   Thumb Code    14  protocol.o(i.headSerialReply)
    i.headSerialResponse                     0x0800912c   Section        0  protocol.o(i.headSerialResponse)
    headSerialResponse                       0x0800912d   Thumb Code    62  protocol.o(i.headSerialResponse)
    i.i2c_getSixRawADC                       0x08009178   Section        0  sensors.o(i.i2c_getSixRawADC)
    i.i2c_init                               0x08009190   Section        0  sensors.o(i.i2c_init)
    i.i2c_readAck                            0x080091a4   Section        0  sensors.o(i.i2c_readAck)
    i.i2c_readNak                            0x080091b6   Section        0  sensors.o(i.i2c_readNak)
    i.i2c_read_reg_to_buf                    0x080091cc   Section        0  sensors.o(i.i2c_read_reg_to_buf)
    i.i2c_writeReg                           0x0800926c   Section        0  sensors.o(i.i2c_writeReg)
    i.initOutput                             0x08009294   Section        0  output.o(i.initOutput)
    i.initS                                  0x080092d4   Section        0  sensors.o(i.initS)
    i.initSensors                            0x080092e8   Section        0  sensors.o(i.initSensors)
    i.init_RTH                               0x0800930c   Section        0  gps.o(i.init_RTH)
    i.initializeServo                        0x080093c8   Section        0  output.o(i.initializeServo)
    i.loadGPSdefaults                        0x080093cc   Section        0  eeprom.o(i.loadGPSdefaults)
    i.loop                                   0x08009490   Section        0  multiwii.o(i.loop)
    i.main                                   0x0800a1a8   Section        0  multiwii.o(i.main)
    i.map                                    0x0800a2b0   Section        0  output.o(i.map)
    i.micros                                 0x0800a2c8   Section        0  timer.o(i.micros)
    i.millis                                 0x0800a2f0   Section        0  timer.o(i.millis)
    i.mixTable                               0x0800a2fc   Section        0  output.o(i.mixTable)
    i.mspAck                                 0x0800a574   Section        0  protocol.o(i.mspAck)
    mspAck                                   0x0800a575   Thumb Code    14  protocol.o(i.mspAck)
    i.mul                                    0x0800a582   Section        0  imu.o(i.mul)
    __tagsym$$noinline                       0x0800a583   Number         0  imu.o(i.mul)
    i.pgm_read_byte_near                     0x0800a58a   Section        0  protocol.o(i.pgm_read_byte_near)
    i.read16                                 0x0800a590   Section        0  protocol.o(i.read16)
    read16                                   0x0800a591   Thumb Code    22  protocol.o(i.read16)
    i.read32                                 0x0800a5a6   Section        0  protocol.o(i.read32)
    read32                                   0x0800a5a7   Thumb Code    20  protocol.o(i.read32)
    i.read8                                  0x0800a5bc   Section        0  protocol.o(i.read8)
    read8                                    0x0800a5bd   Thumb Code    38  protocol.o(i.read8)
    i.readEEPROM                             0x0800a5f0   Section        0  eeprom.o(i.readEEPROM)
    i.readGlobalSet                          0x0800a70c   Section        0  eeprom.o(i.readGlobalSet)
    i.readRawRC                              0x0800a73c   Section        0  rx.o(i.readRawRC)
    i.recallGPSconf                          0x0800a778   Section        0  eeprom.o(i.recallGPSconf)
    i.recallWP                               0x0800a7a4   Section        0  eeprom.o(i.recallWP)
    i.reset_PID                              0x0800a7e0   Section        0  gps.o(i.reset_PID)
    i.rotateV32                              0x0800a7ea   Section        0  imu.o(i.rotateV32)
    i.s_struct                               0x0800a85e   Section        0  protocol.o(i.s_struct)
    s_struct                                 0x0800a85f   Thumb Code    26  protocol.o(i.s_struct)
    i.s_struct_partial                       0x0800a878   Section        0  protocol.o(i.s_struct_partial)
    s_struct_partial                         0x0800a879   Thumb Code    28  protocol.o(i.s_struct_partial)
    i.s_struct_w                             0x0800a894   Section        0  protocol.o(i.s_struct_w)
    s_struct_w                               0x0800a895   Thumb Code    28  protocol.o(i.s_struct_w)
    __tagsym$$noinline                       0x0800a895   Number         0  protocol.o(i.s_struct_w)
    i.serialCom                              0x0800a8b0   Section        0  protocol.o(i.serialCom)
    i.serialize16                            0x0800aa58   Section        0  protocol.o(i.serialize16)
    serialize16                              0x0800aa59   Thumb Code    20  protocol.o(i.serialize16)
    i.serialize32                            0x0800aa6c   Section        0  protocol.o(i.serialize32)
    serialize32                              0x0800aa6d   Thumb Code    34  protocol.o(i.serialize32)
    i.serialize8                             0x0800aa90   Section        0  protocol.o(i.serialize8)
    serialize8                               0x0800aa91   Thumb Code    34  protocol.o(i.serialize8)
    i.serializeNames                         0x0800aabc   Section        0  protocol.o(i.serializeNames)
    serializeNames                           0x0800aabd   Thumb Code    52  protocol.o(i.serializeNames)
    i.set_new_altitude                       0x0800aaf0   Section        0  gps.o(i.set_new_altitude)
    i.setup                                  0x0800aafc   Section        0  multiwii.o(i.setup)
    i.sin                                    0x0800ab98   Section        0  sin.o(i.sin)
    i.sqrt                                   0x0800ac38   Section        0  sqrt.o(i.sqrt)
    i.storeWP                                0x0800ac84   Section        0  eeprom.o(i.storeWP)
    i.store_uart_in_buf                      0x0800acbc   Section        0  serial.o(i.store_uart_in_buf)
    i.strlen_P                               0x0800acf4   Section        0  protocol.o(i.strlen_P)
    i.tailSerialReply                        0x0800ad08   Section        0  protocol.o(i.tailSerialReply)
    tailSerialReply                          0x0800ad09   Thumb Code    24  protocol.o(i.tailSerialReply)
    i.uart_init                              0x0800ad28   Section        0  usart.o(i.uart_init)
    i.update_constants                       0x0800ada0   Section        0  eeprom.o(i.update_constants)
    i.wrap_18000                             0x0800add0   Section        0  gps.o(i.wrap_18000)
    i.wrap_36000                             0x0800adf0   Section        0  gps.o(i.wrap_36000)
    i.writeAllMotors                         0x0800ae08   Section        0  output.o(i.writeAllMotors)
    i.writeGPSconf                           0x0800ae28   Section        0  eeprom.o(i.writeGPSconf)
    i.writeGlobalSet                         0x0800ae48   Section        0  eeprom.o(i.writeGlobalSet)
    i.writeMotors                            0x0800ae78   Section        0  output.o(i.writeMotors)
    i.writeParams                            0x0800ae9c   Section        0  eeprom.o(i.writeParams)
    i.writeServos                            0x0800aef0   Section        0  output.o(i.writeServos)
    .constdata                               0x0800af30   Section      150  multiwii.o(.constdata)
    .constdata                               0x0800afc6   Section      149  usb_ch341.o(.constdata)
    .constdata                               0x0800b05b   Section       20  stm32f10x_rcc.o(.constdata)
    ADCPrescTable                            0x0800b05b   Data           4  stm32f10x_rcc.o(.constdata)
    APBAHBPrescTable                         0x0800b05f   Data          16  stm32f10x_rcc.o(.constdata)
    .constdata                               0x0800b070   Section      152  atan.o(.constdata)
    atanhi                                   0x0800b070   Data          32  atan.o(.constdata)
    atanlo                                   0x0800b090   Data          32  atan.o(.constdata)
    aTodd                                    0x0800b0b0   Data          40  atan.o(.constdata)
    aTeven                                   0x0800b0d8   Data          48  atan.o(.constdata)
    .constdata                               0x0800b108   Section       48  cos_i.o(.constdata)
    C                                        0x0800b108   Data          48  cos_i.o(.constdata)
    .constdata                               0x0800b138   Section        8  qnan.o(.constdata)
    .constdata                               0x0800b140   Section      200  rred.o(.constdata)
    pio2s                                    0x0800b140   Data          48  rred.o(.constdata)
    twooverpi                                0x0800b170   Data         152  rred.o(.constdata)
    .constdata                               0x0800b208   Section       40  sin_i.o(.constdata)
    S                                        0x0800b208   Data          40  sin_i.o(.constdata)
    .data                                    0x20000000   Section       12  eeprom.o(.data)
    sr                                       0x20000004   Data           8  eeprom.o(.data)
    .data                                    0x2000000c   Section      289  gps.o(.data)
    Current_Heading                          0x2000000c   Data           2  gps.o(.data)
    GPS_prev_R                               0x20000010   Data           8  gps.o(.data)
    lastAltDiff                              0x20000026   Data           2  gps.o(.data)
    lastNavDiff                              0x20000028   Data           2  gps.o(.data)
    SpeedBoost                               0x2000002a   Data           2  gps.o(.data)
    GPS_NAV_speed_set                        0x2000002c   Data           2  gps.o(.data)
    GPS_coord_lead                           0x20000034   Data           8  gps.o(.data)
    land_settle_timer                        0x20000040   Data           4  gps.o(.data)
    dTnav                                    0x20000048   Data           4  gps.o(.data)
    actual_speed                             0x20000050   Data           4  gps.o(.data)
    GPS_scaleLonDown                         0x20000054   Data           4  gps.o(.data)
    rate_error                               0x20000058   Data           4  gps.o(.data)
    error                                    0x2000006c   Data           8  gps.o(.data)
    GPS_WP                                   0x20000074   Data           8  gps.o(.data)
    GPS_FROM                                 0x2000007c   Data           8  gps.o(.data)
    original_target_bearing                  0x20000088   Data           4  gps.o(.data)
    crosstrack_error                         0x2000008c   Data           2  gps.o(.data)
    waypoint_speed_gov                       0x20000094   Data           2  gps.o(.data)
    GPS_filter_index                         0x20000096   Data           1  gps.o(.data)
    GPS_filter_sum                           0x20000098   Data           8  gps.o(.data)
    GPS_read                                 0x200000a0   Data           8  gps.o(.data)
    GPS_filtered                             0x200000a8   Data           8  gps.o(.data)
    GPS_degree                               0x200000b0   Data           8  gps.o(.data)
    fraction3                                0x200000b8   Data           4  gps.o(.data)
    nav_takeoff_bearing                      0x200000bc   Data           2  gps.o(.data)
    NAV_flag                                 0x200000be   Data           1  gps.o(.data)
    _last_velocity_1                         0x200000e0   Data           2  gps.o(.data)
    _last_velocity_2                         0x200000e2   Data           2  gps.o(.data)
    nav_loopTimer                            0x200000e4   Data           4  gps.o(.data)
    timeMax                                  0x200000e8   Data           4  gps.o(.data)
    conut_miss_wp                            0x200000ec   Data           1  gps.o(.data)
    speed_old                                0x200000ee   Data           4  gps.o(.data)
    last                                     0x200000f4   Data           8  gps.o(.data)
    init                                     0x200000fc   Data           1  gps.o(.data)
    POI_flag                                 0x200000fd   Data           1  gps.o(.data)
    _step                                    0x200000fe   Data           1  gps.o(.data)
    _msg_id                                  0x200000ff   Data           1  gps.o(.data)
    _payload_length                          0x20000100   Data           2  gps.o(.data)
    _payload_counter                         0x20000102   Data           2  gps.o(.data)
    _ck_a                                    0x20000104   Data           1  gps.o(.data)
    _ck_b                                    0x20000105   Data           1  gps.o(.data)
    NAV_deltaSum                             0x20000106   Data           2  gps.o(.data)
    ALT_deltaSum                             0x20000108   Data           2  gps.o(.data)
    GPS_FwTarget                             0x2000010a   Data           2  gps.o(.data)
    GPS_AltErr                               0x2000010c   Data           2  gps.o(.data)
    NAV_Thro                                 0x2000010e   Data           2  gps.o(.data)
    nav_deltalast1                           0x20000110   Data           4  gps.o(.data)
    nav_deltalast2                           0x20000114   Data           4  gps.o(.data)
    gpsTimer                                 0x20000118   Data           4  gps.o(.data)
    gpsFreq                                  0x2000011c   Data           2  gps.o(.data)
    nav_loopT                                0x20000120   Data           4  gps.o(.data)
    boostlimit                               0x20000124   Data           2  gps.o(.data)
    boostlimitm                              0x20000126   Data           2  gps.o(.data)
    groundSpeedLast1                         0x20000128   Data           2  gps.o(.data)
    groundSpeedLast2                         0x2000012a   Data           2  gps.o(.data)
    passflag                                 0x2000012c   Data           1  gps.o(.data)
    .data                                    0x20000130   Section       46  imu.o(.data)
    accZ                                     0x20000138   Data           2  imu.o(.data)
    gyroADCprevious                          0x20000144   Data           6  imu.o(.data)
    gyroADCinter                             0x2000014a   Data           6  imu.o(.data)
    EstG                                     0x20000150   Data          12  imu.o(.data)
    accZoffset                               0x2000015c   Data           2  imu.o(.data)
    .data                                    0x20000160   Section       44  protocol.o(.data)
    CURRENTPORT                              0x20000160   Data           1  protocol.o(.data)
    checksum                                 0x20000161   Data           4  protocol.o(.data)
    indRX                                    0x20000165   Data           4  protocol.o(.data)
    cmdMSP                                   0x20000169   Data           4  protocol.o(.data)
    msp_comp_gps                             0x2000016e   Data           6  protocol.o(.data)
    id                                       0x20000174   Data           8  protocol.o(.data)
    offset                                   0x2000017c   Data           4  protocol.o(.data)
    dataSize                                 0x20000180   Data           4  protocol.o(.data)
    c_state                                  0x20000184   Data           4  protocol.o(.data)
    GPS_last_frame_seen                      0x20000188   Data           4  protocol.o(.data)
    .data                                    0x2000018c   Section      272  multiwii.o(.data)
    dynP8                                    0x200001f2   Data           2  multiwii.o(.data)
    dynD8                                    0x200001f4   Data           2  multiwii.o(.data)
    GPSLEDTime                               0x2000024c   Data           4  multiwii.o(.data)
    blcnt                                    0x20000250   Data           1  multiwii.o(.data)
    initialThrottleHold                      0x20000274   Data           2  multiwii.o(.data)
    calibratedAccTime                        0x20000278   Data           4  multiwii.o(.data)
    rcDelayCommand                           0x2000027c   Data           1  multiwii.o(.data)
    rcSticks                                 0x2000027d   Data           1  multiwii.o(.data)
    lastGyro                                 0x2000027e   Data           4  multiwii.o(.data)
    errorAngleI                              0x20000282   Data           4  multiwii.o(.data)
    delta1                                   0x20000286   Data           6  multiwii.o(.data)
    delta2                                   0x2000028c   Data           6  multiwii.o(.data)
    lastError                                0x20000292   Data           6  multiwii.o(.data)
    rcTime                                   0x20000298   Data           2  multiwii.o(.data)
    last_dorp_status                         0x2000029a   Data           1  multiwii.o(.data)
    taskOrder                                0x2000029b   Data           1  multiwii.o(.data)
    .data                                    0x2000029c   Section       16  output.o(.data)
    .data                                    0x200002ac   Section       48  sensors.o(.data)
    rawADC                                   0x200002ac   Data           6  sensors.o(.data)
    magGain                                  0x200002b4   Data          12  sensors.o(.data)
    previousGyroADC                          0x200002c0   Data           6  sensors.o(.data)
    curAxis                                  0x200002c6   Data           1  sensors.o(.data)
    t                                        0x200002c8   Data           4  sensors.o(.data)
    tCal                                     0x200002cc   Data           4  sensors.o(.data)
    magZeroTempMin                           0x200002d0   Data           6  sensors.o(.data)
    magZeroTempMax                           0x200002d6   Data           6  sensors.o(.data)
    .data                                    0x200002dc   Section       32  serial.o(.data)
    serialHeadRX                             0x200002dc   Data           8  serial.o(.data)
    serialTailRX                             0x200002e4   Data           8  serial.o(.data)
    serialHeadTX                             0x200002ec   Data           8  serial.o(.data)
    serialTailTX                             0x200002f4   Data           8  serial.o(.data)
    .data                                    0x200002fc   Section       37  rx.o(.data)
    rcChannel                                0x20000314   Data          12  rx.o(.data)
    rc4ValuesIndex                           0x20000320   Data           1  rx.o(.data)
    .data                                    0x20000328   Section       40  timer.o(.data)
    _micros_time_                            0x20000340   Data           8  timer.o(.data)
    _millis_time_                            0x20000348   Data           8  timer.o(.data)
    .data                                    0x20000350   Section        4  delay.o(.data)
    .data                                    0x20000354   Section        2  re_eeprom.o(.data)
    temp                                     0x20000354   Data           1  re_eeprom.o(.data)
    i                                        0x20000355   Data           1  re_eeprom.o(.data)
    .data                                    0x20000358   Section       11  usart.o(.data)
    num_cap                                  0x20000358   Data           1  usart.o(.data)
    i                                        0x2000035c   Data           4  usart.o(.data)
    startflag                                0x20000360   Data           1  usart.o(.data)
    lastres                                  0x20000361   Data           1  usart.o(.data)
    lastlastres                              0x20000362   Data           1  usart.o(.data)
    .data                                    0x20000364   Section      293  usb_ch341.o(.data)
    vender_request                           0x20000408   Data           1  usb_ch341.o(.data)
    buf1                                     0x2000047d   Data           2  usb_ch341.o(.data)
    buf2                                     0x2000047f   Data           2  usb_ch341.o(.data)
    baud_factor                              0x20000484   Data           4  usb_ch341.o(.data)
    divisor                                  0x20000488   Data           1  usb_ch341.o(.data)
    .data                                    0x2000048c   Section        4  errno.o(.data)
    _errno                                   0x2000048c   Data           4  errno.o(.data)
    .bss                                     0x20000490   Section      316  gps.o(.bss)
    AltHist                                  0x20000490   Data          20  gps.o(.bss)
    NavDif                                   0x200004a4   Data          20  gps.o(.bss)
    GPS_filter                               0x20000570   Data          40  gps.o(.bss)
    _buffer                                  0x20000598   Data          52  gps.o(.bss)
    .bss                                     0x200005cc   Section       24  imu.o(.bss)
    EstM                                     0x200005cc   Data          12  imu.o(.bss)
    LPFAcc                                   0x200005d8   Data          12  imu.o(.bss)
    .bss                                     0x200005e4   Section      352  protocol.o(.bss)
    inBuf                                    0x200005e4   Data         256  protocol.o(.bss)
    set_misc                                 0x200006e4   Data          24  protocol.o(.bss)
    misc                                     0x200006fc   Data          24  protocol.o(.bss)
    set_set_raw_gps                          0x20000714   Data          16  protocol.o(.bss)
    msp_raw_gps                              0x20000724   Data          20  protocol.o(.bss)
    st                                       0x20000738   Data          12  protocol.o(.bss)
    .bss                                     0x20000744   Section      556  multiwii.o(.bss)
    errorGyroI                               0x20000964   Data          12  multiwii.o(.bss)
    .bss                                     0x20000970   Section       36  sensors.o(.bss)
    g                                        0x20000970   Data          12  sensors.o(.bss)
    a                                        0x2000097c   Data          12  sensors.o(.bss)
    limits                                   0x20000988   Data          12  sensors.o(.bss)
    .bss                                     0x20000994   Section     1536  serial.o(.bss)
    serialBufferTX                           0x20000d94   Data         512  serial.o(.bss)
    .bss                                     0x20000f94   Section       72  rx.o(.bss)
    rcData4Values                            0x20000f94   Data          72  rx.o(.bss)
    .bss                                     0x20000fdc   Section      342  usart.o(.bss)
    .bss                                     0x20001134   Section       60  usb_ch341.o(.bss)
    STACK                                    0x20001170   Section    12288  startup_stm32f10x_hd.o(STACK)

    Global Symbols

    Symbol Name                              Value     Ov Type        Size  Object(Section)

    BuildAttributes$$THM_ISAv4$P$D$K$B$S$PE$A:L22UL41UL21$X:L11$S22US41US21$IEEE1$IW$USESV6$~STKCKD$USESV7$~SHL$OTIME$ROPI$IEEEX$EBA8$MICROLIB$REQ8$PRES8$EABIv2 0x00000000   Number         0  anon$$obj.o ABSOLUTE
    __ARM_use_no_argv                        0x00000000   Number         0  multiwii.o ABSOLUTE
    __cpp_initialize__aeabi_                  - Undefined Weak Reference
    __cxa_finalize                            - Undefined Weak Reference
    _clock_init                               - Undefined Weak Reference
    _microlib_exit                            - Undefined Weak Reference
    __Vectors_Size                           0x00000130   Number         0  startup_stm32f10x_hd.o ABSOLUTE
    __Vectors                                0x08000000   Data           4  startup_stm32f10x_hd.o(RESET)
    __Vectors_End                            0x08000130   Data           0  startup_stm32f10x_hd.o(RESET)
    __main                                   0x08000131   Thumb Code     0  entry.o(.ARM.Collect$$$$00000000)
    _main_stk                                0x08000131   Thumb Code     0  entry2.o(.ARM.Collect$$$$00000001)
    _main_scatterload                        0x08000135   Thumb Code     0  entry5.o(.ARM.Collect$$$$00000004)
    __main_after_scatterload                 0x08000139   Thumb Code     0  entry5.o(.ARM.Collect$$$$00000004)
    _main_clock                              0x08000139   Thumb Code     0  entry7b.o(.ARM.Collect$$$$00000008)
    _main_cpp_init                           0x08000139   Thumb Code     0  entry8b.o(.ARM.Collect$$$$0000000A)
    _main_init                               0x08000139   Thumb Code     0  entry9a.o(.ARM.Collect$$$$0000000B)
    __rt_final_cpp                           0x08000141   Thumb Code     0  entry10a.o(.ARM.Collect$$$$0000000D)
    __rt_final_exit                          0x08000141   Thumb Code     0  entry11a.o(.ARM.Collect$$$$0000000F)
    Reset_Handler                            0x08000145   Thumb Code     8  startup_stm32f10x_hd.o(.text)
    EXTI1_IRQHandler                         0x0800015f   Thumb Code     0  startup_stm32f10x_hd.o(.text)
    EXTI4_IRQHandler                         0x0800015f   Thumb Code     0  startup_stm32f10x_hd.o(.text)
    I2C1_ER_IRQHandler                       0x0800015f   Thumb Code     0  startup_stm32f10x_hd.o(.text)
    I2C1_EV_IRQHandler                       0x0800015f   Thumb Code     0  startup_stm32f10x_hd.o(.text)
    TIM1_CC_IRQHandler                       0x0800015f   Thumb Code     0  startup_stm32f10x_hd.o(.text)
    TIM2_IRQHandler                          0x0800015f   Thumb Code     0  startup_stm32f10x_hd.o(.text)
    TIM5_IRQHandler                          0x0800015f   Thumb Code     0  startup_stm32f10x_hd.o(.text)
    UART4_IRQHandler                         0x0800015f   Thumb Code     0  startup_stm32f10x_hd.o(.text)
    UART5_IRQHandler                         0x0800015f   Thumb Code     0  startup_stm32f10x_hd.o(.text)
    __aeabi_llsr                             0x08000169   Thumb Code    32  llushr.o(.text)
    _ll_ushift_r                             0x08000169   Thumb Code     0  llushr.o(.text)
    __aeabi_fadd                             0x08000189   Thumb Code   164  fadd.o(.text)
    __aeabi_fsub                             0x0800022d   Thumb Code     6  fadd.o(.text)
    __aeabi_frsub                            0x08000233   Thumb Code     6  fadd.o(.text)
    __aeabi_fmul                             0x08000239   Thumb Code   100  fmul.o(.text)
    __aeabi_fdiv                             0x0800029d   Thumb Code   124  fdiv.o(.text)
    __aeabi_dadd                             0x08000319   Thumb Code   322  dadd.o(.text)
    __aeabi_dsub                             0x0800045b   Thumb Code     6  dadd.o(.text)
    __aeabi_drsub                            0x08000461   Thumb Code     6  dadd.o(.text)
    __aeabi_dmul                             0x08000467   Thumb Code   228  dmul.o(.text)
    __aeabi_ddiv                             0x0800054b   Thumb Code   222  ddiv.o(.text)
    __aeabi_i2f                              0x08000629   Thumb Code    18  fflti.o(.text)
    __aeabi_ui2f                             0x0800063b   Thumb Code    10  ffltui.o(.text)
    __aeabi_ul2f                             0x08000645   Thumb Code    28  ffltul.o(.text)
    __aeabi_i2d                              0x08000661   Thumb Code    34  dflti.o(.text)
    __aeabi_ui2d                             0x08000683   Thumb Code    26  dfltui.o(.text)
    __aeabi_f2iz                             0x0800069d   Thumb Code    50  ffixi.o(.text)
    __aeabi_d2iz                             0x080006cf   Thumb Code    62  dfixi.o(.text)
    __aeabi_d2uiz                            0x0800070d   Thumb Code    50  dfixui.o(.text)
    __aeabi_f2d                              0x0800073f   Thumb Code    38  f2d.o(.text)
    __aeabi_cdcmpeq                          0x08000765   Thumb Code     0  cdcmple.o(.text)
    __aeabi_cdcmple                          0x08000765   Thumb Code    48  cdcmple.o(.text)
    __aeabi_cdrcmple                         0x08000795   Thumb Code    48  cdrcmple.o(.text)
    __aeabi_d2f                              0x080007c5   Thumb Code    56  d2f.o(.text)
    __aeabi_cfcmpeq                          0x080007fd   Thumb Code     0  cfcmple.o(.text)
    __aeabi_cfcmple                          0x080007fd   Thumb Code    20  cfcmple.o(.text)
    __aeabi_cfrcmple                         0x08000811   Thumb Code    20  cfrcmple.o(.text)
    __aeabi_llsl                             0x08000825   Thumb Code    30  llshl.o(.text)
    _ll_shift_l                              0x08000825   Thumb Code     0  llshl.o(.text)
    __aeabi_lasr                             0x08000843   Thumb Code    36  llsshr.o(.text)
    _ll_sshift_r                             0x08000843   Thumb Code     0  llsshr.o(.text)
    __I$use$fp                               0x08000867   Thumb Code     0  iusefp.o(.text)
    _float_round                             0x08000867   Thumb Code    18  fepilogue.o(.text)
    _float_epilogue                          0x08000879   Thumb Code    92  fepilogue.o(.text)
    _double_round                            0x080008d5   Thumb Code    30  depilogue.o(.text)
    _double_epilogue                         0x080008f3   Thumb Code   156  depilogue.o(.text)
    _dsqrt                                   0x0800098f   Thumb Code   162  dsqrt.o(.text)
    __scatterload                            0x08000a31   Thumb Code    28  init.o(.text)
    __scatterload_rt2                        0x08000a31   Thumb Code     0  init.o(.text)
    __ARM_scalbn                             0x08000a55   Thumb Code    46  dscalb.o(.text)
    scalbn                                   0x08000a55   Thumb Code     0  dscalb.o(.text)
    __decompress                             0x08000a83   Thumb Code     0  __dczerorl2.o(.text)
    __decompress1                            0x08000a83   Thumb Code    86  __dczerorl2.o(.text)
    ACC_Common                               0x08000ad9   Thumb Code   626  sensors.o(i.ACC_Common)
    ACC_getADC                               0x08000d69   Thumb Code    76  sensors.o(i.ACC_getADC)
    ADC1_2_IRQHandler                        0x08000dcb   Thumb Code     2  stm32f10x_it.o(i.ADC1_2_IRQHandler)
    ADC3_IRQHandler                          0x08000dcd   Thumb Code     2  stm32f10x_it.o(i.ADC3_IRQHandler)
    AT24CXX_Check                            0x08000dd1   Thumb Code    64  re_eeprom.o(i.AT24CXX_Check)
    AT24CXX_ReadOneByte                      0x08000e15   Thumb Code    82  re_eeprom.o(i.AT24CXX_ReadOneByte)
    AT24CXX_WriteOneByte                     0x08000e67   Thumb Code    76  re_eeprom.o(i.AT24CXX_WriteOneByte)
    AT24CXX_write_Page                       0x08000eb3   Thumb Code   300  re_eeprom.o(i.AT24CXX_write_Page)
    BusFault_Handler                         0x08000fe1   Thumb Code    22  stm32f10x_it.o(i.BusFault_Handler)
    ByteSwap                                 0x08000ffd   Thumb Code    12  usb_ch341.o(i.ByteSwap)
    CAN1_RX1_IRQHandler                      0x08001009   Thumb Code     2  stm32f10x_it.o(i.CAN1_RX1_IRQHandler)
    CAN1_SCE_IRQHandler                      0x0800100b   Thumb Code     2  stm32f10x_it.o(i.CAN1_SCE_IRQHandler)
    CTR_LP                                   0x0800100d   Thumb Code   774  usb_ch341.o(i.CTR_LP)
    Capture                                  0x08001335   Thumb Code   350  usart.o(i.Capture)
    ClearDTOG_RX                             0x0800149d   Thumb Code    46  usb_ch341.o(i.ClearDTOG_RX)
    ClearDTOG_TX                             0x080014d1   Thumb Code    46  usb_ch341.o(i.ClearDTOG_TX)
    Clear_Status_Out                         0x08001505   Thumb Code    28  usb_ch341.o(i.Clear_Status_Out)
    CradleControl                            0x08001525   Thumb Code   656  gps.o(i.CradleControl)
    DMA1_Channel1_IRQHandler                 0x080017f5   Thumb Code     2  stm32f10x_it.o(i.DMA1_Channel1_IRQHandler)
    DMA1_Channel2_IRQHandler                 0x080017f7   Thumb Code     2  stm32f10x_it.o(i.DMA1_Channel2_IRQHandler)
    DMA1_Channel3_IRQHandler                 0x080017f9   Thumb Code     2  stm32f10x_it.o(i.DMA1_Channel3_IRQHandler)
    DMA1_Channel4_IRQHandler                 0x080017fb   Thumb Code     2  stm32f10x_it.o(i.DMA1_Channel4_IRQHandler)
    DMA1_Channel5_IRQHandler                 0x080017fd   Thumb Code     2  stm32f10x_it.o(i.DMA1_Channel5_IRQHandler)
    DMA1_Channel6_IRQHandler                 0x080017ff   Thumb Code     2  stm32f10x_it.o(i.DMA1_Channel6_IRQHandler)
    DMA1_Channel7_IRQHandler                 0x08001801   Thumb Code     2  stm32f10x_it.o(i.DMA1_Channel7_IRQHandler)
    DMA2_Channel1_IRQHandler                 0x08001803   Thumb Code     2  stm32f10x_it.o(i.DMA2_Channel1_IRQHandler)
    DMA2_Channel2_IRQHandler                 0x08001805   Thumb Code     2  stm32f10x_it.o(i.DMA2_Channel2_IRQHandler)
    DMA2_Channel3_IRQHandler                 0x08001807   Thumb Code     2  stm32f10x_it.o(i.DMA2_Channel3_IRQHandler)
    DMA2_Channel4_5_IRQHandler               0x08001809   Thumb Code     2  stm32f10x_it.o(i.DMA2_Channel4_5_IRQHandler)
    DebugMon_Handler                         0x08001c21   Thumb Code     2  stm32f10x_it.o(i.DebugMon_Handler)
    Delay_1us                                0x08001c23   Thumb Code    18  gy_86.o(i.Delay_1us)
    EEPROM_Delay_1us                         0x08001c8d   Thumb Code    30  re_eeprom.o(i.EEPROM_Delay_1us)
    EEPROM_I2C_GPIO_Config                   0x08001cad   Thumb Code    46  re_eeprom.o(i.EEPROM_I2C_GPIO_Config)
    EEPROM_I2C_RecvByte                      0x08001ce5   Thumb Code    92  re_eeprom.o(i.EEPROM_I2C_RecvByte)
    EEPROM_I2C_SendACK                       0x08001d45   Thumb Code    80  re_eeprom.o(i.EEPROM_I2C_SendACK)
    EEPROM_I2C_SendByte                      0x08001d99   Thumb Code   108  re_eeprom.o(i.EEPROM_I2C_SendByte)
    EEPROM_I2C_Start                         0x08001e09   Thumb Code   136  re_eeprom.o(i.EEPROM_I2C_Start)
    EEPROM_I2C_Stop                          0x08001e95   Thumb Code    76  re_eeprom.o(i.EEPROM_I2C_Stop)
    EEPROM_I2C_WaitAck                       0x08001ee5   Thumb Code   132  re_eeprom.o(i.EEPROM_I2C_WaitAck)
    EP1_IN_Callback                          0x08001f6d   Thumb Code     2  usb_ch341.o(i.EP1_IN_Callback)
    EP2_IN_Callback                          0x08001f6f   Thumb Code     2  usb_ch341.o(i.EP2_IN_Callback)
    EP2_OUT_Callback                         0x08001f71   Thumb Code    38  usb_ch341.o(i.EP2_OUT_Callback)
    EXTI0_IRQHandler                         0x08001f9d   Thumb Code     2  stm32f10x_it.o(i.EXTI0_IRQHandler)
    EXTI15_10_IRQHandler                     0x08001f9f   Thumb Code     2  stm32f10x_it.o(i.EXTI15_10_IRQHandler)
    EXTI2_IRQHandler                         0x08001fa1   Thumb Code     2  stm32f10x_it.o(i.EXTI2_IRQHandler)
    EXTI3_IRQHandler                         0x08001fa3   Thumb Code     2  stm32f10x_it.o(i.EXTI3_IRQHandler)
    EXTI9_5_IRQHandler                       0x08001fa5   Thumb Code     2  stm32f10x_it.o(i.EXTI9_5_IRQHandler)
    FLASH_IRQHandler                         0x08001fa7   Thumb Code     2  stm32f10x_it.o(i.FLASH_IRQHandler)
    FSMC_IRQHandler                          0x08001fa9   Thumb Code     2  stm32f10x_it.o(i.FSMC_IRQHandler)
    FW_NAV                                   0x08001fad   Thumb Code  2512  gps.o(i.FW_NAV)
    FW_NavSpeed                              0x08002995   Thumb Code   218  gps.o(i.FW_NavSpeed)
    GPIO_Configuration                       0x08002a91   Thumb Code    36  multiwii.o(i.GPIO_Configuration)
    GPIO_Init                                0x08002abd   Thumb Code   160  stm32f10x_gpio.o(i.GPIO_Init)
    GPIO_ResetBits                           0x08002b5d   Thumb Code     4  stm32f10x_gpio.o(i.GPIO_ResetBits)
    GPIO_SetBits                             0x08002b61   Thumb Code     4  stm32f10x_gpio.o(i.GPIO_SetBits)
    GPS_Compute                              0x08002b65   Thumb Code  2694  gps.o(i.GPS_Compute)
    GPS_adjust_heading                       0x08003621   Thumb Code   170  gps.o(i.GPS_adjust_heading)
    GPS_calc_longitude_scaling               0x08003825   Thumb Code    54  gps.o(i.GPS_calc_longitude_scaling)
    GPS_newFrame                             0x08003d81   Thumb Code   412  gps.o(i.GPS_newFrame)
    GPS_reset_home_position                  0x08003f55   Thumb Code    66  gps.o(i.GPS_reset_home_position)
    GPS_reset_nav                            0x08003fb1   Thumb Code   132  gps.o(i.GPS_reset_nav)
    GPS_set_next_wp                          0x08004065   Thumb Code   330  gps.o(i.GPS_set_next_wp)
    GPS_set_pids                             0x080041dd   Thumb Code   394  gps.o(i.GPS_set_pids)
    GYRO_Common                              0x08004479   Thumb Code   208  sensors.o(i.GYRO_Common)
    GetEPRxAddr                              0x0800455d   Thumb Code    24  usb_ch341.o(i.GetEPRxAddr)
    GetEPRxCount                             0x0800457d   Thumb Code    26  usb_ch341.o(i.GetEPRxCount)
    GetEPTxAddr                              0x080045a1   Thumb Code    22  usb_ch341.o(i.GetEPTxAddr)
    GetEPTxStatus                            0x080045c1   Thumb Code    18  usb_ch341.o(i.GetEPTxStatus)
    Get_SerialNum                            0x080045d9   Thumb Code    62  usb_ch341.o(i.Get_SerialNum)
    Gyro_getADC                              0x08004621   Thumb Code    80  sensors.o(i.Gyro_getADC)
    HardFault_Handler                        0x080046b5   Thumb Code    34  stm32f10x_it.o(i.HardFault_Handler)
    I2C2_ER_IRQHandler                       0x080046e1   Thumb Code     2  stm32f10x_it.o(i.I2C2_ER_IRQHandler)
    I2C2_EV_IRQHandler                       0x080046e3   Thumb Code     2  stm32f10x_it.o(i.I2C2_EV_IRQHandler)
    I2C_GPIO_Config                          0x080046e5   Thumb Code    40  gy_86.o(i.I2C_GPIO_Config)
    I2C_RecvByte                             0x08004711   Thumb Code    92  gy_86.o(i.I2C_RecvByte)
    I2C_SendACK                              0x08004771   Thumb Code    80  gy_86.o(i.I2C_SendACK)
    I2C_SendByte                             0x080047c5   Thumb Code   114  gy_86.o(i.I2C_SendByte)
    I2C_Start                                0x0800483d   Thumb Code   136  gy_86.o(i.I2C_Start)
    I2C_Stop                                 0x080048c9   Thumb Code    76  gy_86.o(i.I2C_Stop)
    I2C_WaitAck                              0x08004919   Thumb Code   132  gy_86.o(i.I2C_WaitAck)
    In0_Process                              0x080049a1   Thumb Code    98  usb_ch341.o(i.In0_Process)
    InvSqrt                                  0x08004a11   Thumb Code    62  imu.o(i.InvSqrt)
    JTAG_Set                                 0x08004a5d   Thumb Code    38  sys.o(i.JTAG_Set)
    LED_init                                 0x08004a8d   Thumb Code    78  multiwii.o(i.LED_init)
    LoadDefaults                             0x08004ae1   Thumb Code   332  eeprom.o(i.LoadDefaults)
    MYRCC_DeInit                             0x08004c35   Thumb Code    90  sys.o(i.MYRCC_DeInit)
    MY_NVIC_SetVectorTable                   0x08004c9d   Thumb Code    12  sys.o(i.MY_NVIC_SetVectorTable)
    Mag_getADC                               0x08004cb1   Thumb Code   338  sensors.o(i.Mag_getADC)
    MemManage_Handler                        0x08004e59   Thumb Code    22  stm32f10x_it.o(i.MemManage_Handler)
    NMI_Handler                              0x08004e75   Thumb Code    20  stm32f10x_it.o(i.NMI_Handler)
    NOP_Process                              0x08004e8d   Thumb Code     2  usb_ch341.o(i.NOP_Process)
    NVIC_Init                                0x08004e91   Thumb Code   100  misc.o(i.NVIC_Init)
    NVIC_PriorityGroupConfig                 0x08004f01   Thumb Code    10  misc.o(i.NVIC_PriorityGroupConfig)
    NVIC_SetVectorTable                      0x08004f15   Thumb Code    12  misc.o(i.NVIC_SetVectorTable)
    Out0_Process                             0x0800506d   Thumb Code    70  usb_ch341.o(i.Out0_Process)
    PMAToUserBufferCopy                      0x080050bd   Thumb Code    34  usb_ch341.o(i.PMAToUserBufferCopy)
    PVD_IRQHandler                           0x080050e5   Thumb Code     2  stm32f10x_it.o(i.PVD_IRQHandler)
    PendSV_Handler                           0x080050e7   Thumb Code     2  stm32f10x_it.o(i.PendSV_Handler)
    Post0_Process                            0x080050e9   Thumb Code    54  usb_ch341.o(i.Post0_Process)
    PowerOn                                  0x08005131   Thumb Code    54  usb_ch341.o(i.PowerOn)
    RCC_APB1PeriphClockCmd                   0x08005171   Thumb Code    18  stm32f10x_rcc.o(i.RCC_APB1PeriphClockCmd)
    RCC_APB1PeriphResetCmd                   0x08005189   Thumb Code    18  stm32f10x_rcc.o(i.RCC_APB1PeriphResetCmd)
    RCC_APB2PeriphClockCmd                   0x080051a1   Thumb Code    18  stm32f10x_rcc.o(i.RCC_APB2PeriphClockCmd)
    RCC_APB2PeriphResetCmd                   0x080051b9   Thumb Code    18  stm32f10x_rcc.o(i.RCC_APB2PeriphResetCmd)
    RCC_GetClocksFreq                        0x080051d1   Thumb Code   132  stm32f10x_rcc.o(i.RCC_GetClocksFreq)
    RCC_IRQHandler                           0x08005265   Thumb Code     2  stm32f10x_it.o(i.RCC_IRQHandler)
    RCC_USBCLKConfig                         0x08005269   Thumb Code     6  stm32f10x_rcc.o(i.RCC_USBCLKConfig)
    RTCAlarm_IRQHandler                      0x08005275   Thumb Code     2  stm32f10x_it.o(i.RTCAlarm_IRQHandler)
    RTC_IRQHandler                           0x08005277   Thumb Code     2  stm32f10x_it.o(i.RTC_IRQHandler)
    SDIO_IRQHandler                          0x08005279   Thumb Code     2  stm32f10x_it.o(i.SDIO_IRQHandler)
    SPI1_IRQHandler                          0x0800527b   Thumb Code     2  stm32f10x_it.o(i.SPI1_IRQHandler)
    SPI2_IRQHandler                          0x0800527d   Thumb Code     2  stm32f10x_it.o(i.SPI2_IRQHandler)
    SPI3_IRQHandler                          0x0800527f   Thumb Code     2  stm32f10x_it.o(i.SPI3_IRQHandler)
    SVC_Handler                              0x08005281   Thumb Code     2  stm32f10x_it.o(i.SVC_Handler)
    SerialAvailable                          0x08005285   Thumb Code    58  serial.o(i.SerialAvailable)
    SerialRead                               0x080052c9   Thumb Code    64  serial.o(i.SerialRead)
    SerialSerialize                          0x08005315   Thumb Code    36  serial.o(i.SerialSerialize)
    SerialUsedTXBuff                         0x08005341   Thumb Code    58  serial.o(i.SerialUsedTXBuff)
    SetBTABLE                                0x08005385   Thumb Code    12  usb_ch341.o(i.SetBTABLE)
    SetDeviceAddress                         0x08005395   Thumb Code    62  usb_ch341.o(i.SetDeviceAddress)
    SetEPRxAddr                              0x080053e1   Thumb Code    26  usb_ch341.o(i.SetEPRxAddr)
    SetEPRxCount                             0x08005405   Thumb Code    68  usb_ch341.o(i.SetEPRxCount)
    SetEPRxStatus                            0x08005451   Thumb Code    52  usb_ch341.o(i.SetEPRxStatus)
    SetEPRxValid                             0x08005489   Thumb Code    38  usb_ch341.o(i.SetEPRxValid)
    SetEPTxAddr                              0x080054b5   Thumb Code    24  usb_ch341.o(i.SetEPTxAddr)
    SetEPTxCount                             0x080054d5   Thumb Code    20  usb_ch341.o(i.SetEPTxCount)
    SetEPTxStatus                            0x080054f1   Thumb Code    52  usb_ch341.o(i.SetEPTxStatus)
    SetEPTxValid                             0x08005529   Thumb Code    38  usb_ch341.o(i.SetEPTxValid)
    SetEPType                                0x08005555   Thumb Code    32  usb_ch341.o(i.SetEPType)
    Set_USBClock                             0x08005661   Thumb Code    18  usb_ch341.o(i.Set_USBClock)
    Setup0_Process                           0x08005675   Thumb Code   162  usb_ch341.o(i.Setup0_Process)
    Single_WriteI2C                          0x08005725   Thumb Code   116  gy_86.o(i.Single_WriteI2C)
    Standard_ClearFeature                    0x0800579d   Thumb Code   326  usb_ch341.o(i.Standard_ClearFeature)
    Standard_GetConfiguration                0x080058f9   Thumb Code    34  usb_ch341.o(i.Standard_GetConfiguration)
    Standard_GetDescriptorData               0x08005925   Thumb Code    32  usb_ch341.o(i.Standard_GetDescriptorData)
    Standard_GetInterface                    0x08005949   Thumb Code    34  usb_ch341.o(i.Standard_GetInterface)
    Standard_GetStatus                       0x08005975   Thumb Code   224  usb_ch341.o(i.Standard_GetStatus)
    Standard_SetConfiguration                0x08005a65   Thumb Code    60  usb_ch341.o(i.Standard_SetConfiguration)
    Standard_SetDeviceFeature                0x08005aad   Thumb Code    30  usb_ch341.o(i.Standard_SetDeviceFeature)
    Standard_SetEndPointFeature              0x08005ad5   Thumb Code   176  usb_ch341.o(i.Standard_SetEndPointFeature)
    Standard_SetInterface                    0x08005b95   Thumb Code    96  usb_ch341.o(i.Standard_SetInterface)
    Stm32_Clock_Init                         0x08005c01   Thumb Code   134  sys.o(i.Stm32_Clock_Init)
    SysTick_Handler                          0x08005c91   Thumb Code    58  timer.o(i.SysTick_Handler)
    SystemInit                               0x08005cd9   Thumb Code    78  system_stm32f10x.o(i.SystemInit)
    TAMPER_IRQHandler                        0x08005d39   Thumb Code     2  stm32f10x_it.o(i.TAMPER_IRQHandler)
    TIM1_BRK_IRQHandler                      0x08005d3b   Thumb Code     2  stm32f10x_it.o(i.TIM1_BRK_IRQHandler)
    TIM1_TRG_COM_IRQHandler                  0x08005d3d   Thumb Code     2  stm32f10x_it.o(i.TIM1_TRG_COM_IRQHandler)
    TIM1_UP_IRQHandler                       0x08005d3f   Thumb Code     2  stm32f10x_it.o(i.TIM1_UP_IRQHandler)
    TIM3_IRQHandler                          0x08005d41   Thumb Code     2  stm32f10x_it.o(i.TIM3_IRQHandler)
    TIM3_PWM_Init                            0x08005d45   Thumb Code   264  timer.o(i.TIM3_PWM_Init)
    TIM4_IRQHandler                          0x08005e5d   Thumb Code     2  stm32f10x_it.o(i.TIM4_IRQHandler)
    TIM4_PWM_Init                            0x08005e61   Thumb Code   254  timer.o(i.TIM4_PWM_Init)
    TIM6_IRQHandler                          0x08005f6d   Thumb Code     2  stm32f10x_it.o(i.TIM6_IRQHandler)
    TIM7_IRQHandler                          0x08005f6f   Thumb Code     2  stm32f10x_it.o(i.TIM7_IRQHandler)
    TIM8_BRK_IRQHandler                      0x08005f71   Thumb Code     2  stm32f10x_it.o(i.TIM8_BRK_IRQHandler)
    TIM8_CC_IRQHandler                       0x08005f73   Thumb Code     2  stm32f10x_it.o(i.TIM8_CC_IRQHandler)
    TIM8_TRG_COM_IRQHandler                  0x08005f75   Thumb Code     2  stm32f10x_it.o(i.TIM8_TRG_COM_IRQHandler)
    TIM8_UP_IRQHandler                       0x08005f77   Thumb Code     2  stm32f10x_it.o(i.TIM8_UP_IRQHandler)
    TIM_SetCompare1                          0x08005f79   Thumb Code     4  stm32f10x_tim.o(i.TIM_SetCompare1)
    TIM_SetCompare2                          0x08005f7d   Thumb Code     4  stm32f10x_tim.o(i.TIM_SetCompare2)
    USART1_IRQHandler                        0x08005f81   Thumb Code    30  usart.o(i.USART1_IRQHandler)
    USART2_Configuration                     0x08005fa5   Thumb Code   154  usart.o(i.USART2_Configuration)
    USART2_IRQHandler                        0x08006049   Thumb Code    30  usart.o(i.USART2_IRQHandler)
    USART3_Configuration                     0x0800606d   Thumb Code   164  usart.o(i.USART3_Configuration)
    USART3_IRQHandler                        0x08006119   Thumb Code   124  usart.o(i.USART3_IRQHandler)
    USART_Cmd                                0x080061b5   Thumb Code    20  stm32f10x_usart.o(i.USART_Cmd)
    USART_DeInit                             0x080061c9   Thumb Code    98  stm32f10x_usart.o(i.USART_DeInit)
    USART_ITConfig                           0x08006235   Thumb Code    48  stm32f10x_usart.o(i.USART_ITConfig)
    USART_Init                               0x08006265   Thumb Code   130  stm32f10x_usart.o(i.USART_Init)
    USBWakeUp_IRQHandler                     0x080062ed   Thumb Code     2  stm32f10x_it.o(i.USBWakeUp_IRQHandler)
    USB_CH341_Init                           0x080062ef   Thumb Code    16  usb_ch341.o(i.USB_CH341_Init)
    USB_Cable_Config                         0x08006301   Thumb Code    26  usb_ch341.o(i.USB_Cable_Config)
    USB_HP_CAN1_TX_IRQHandler                0x08006321   Thumb Code     2  stm32f10x_it.o(i.USB_HP_CAN1_TX_IRQHandler)
    USB_Init                                 0x08006325   Thumb Code    78  usb_ch341.o(i.USB_Init)
    USB_Interrupts_Config                    0x08006391   Thumb Code    68  usb_ch341.o(i.USB_Interrupts_Config)
    USB_LP_CAN1_RX0_IRQHandler               0x080063d5   Thumb Code    96  usb_ch341.o(i.USB_LP_CAN1_RX0_IRQHandler)
    USB_receive                              0x08006449   Thumb Code    36  usb_ch341.o(i.USB_receive)
    USB_send                                 0x0800646d   Thumb Code    68  usb_ch341.o(i.USB_send)
    UartSendData                             0x080064b1   Thumb Code   446  serial.o(i.UartSendData)
    UsageFault_Handler                       0x08006699   Thumb Code    22  stm32f10x_it.o(i.UsageFault_Handler)
    UserToPMABufferCopy                      0x080066b5   Thumb Code    52  usb_ch341.o(i.UserToPMABufferCopy)
    Vender_Handle_CH341                      0x080066ed   Thumb Code   120  usb_ch341.o(i.Vender_Handle_CH341)
    Virtual_Com_Port_Data_Setup              0x08006779   Thumb Code    90  usb_ch341.o(i.Virtual_Com_Port_Data_Setup)
    Virtual_Com_Port_GetConfigDescriptor     0x080067ed   Thumb Code    14  usb_ch341.o(i.Virtual_Com_Port_GetConfigDescriptor)
    Virtual_Com_Port_GetDeviceDescriptor     0x08006801   Thumb Code    14  usb_ch341.o(i.Virtual_Com_Port_GetDeviceDescriptor)
    Virtual_Com_Port_GetLineCoding           0x08006815   Thumb Code    20  usb_ch341.o(i.Virtual_Com_Port_GetLineCoding)
    Virtual_Com_Port_GetStringDescriptor     0x08006831   Thumb Code    32  usb_ch341.o(i.Virtual_Com_Port_GetStringDescriptor)
    Virtual_Com_Port_Get_Interface_Setting   0x08006859   Thumb Code    22  usb_ch341.o(i.Virtual_Com_Port_Get_Interface_Setting)
    Virtual_Com_Port_NoData_Setup            0x08006871   Thumb Code   240  usb_ch341.o(i.Virtual_Com_Port_NoData_Setup)
    Virtual_Com_Port_Reset                   0x08006979   Thumb Code   200  usb_ch341.o(i.Virtual_Com_Port_Reset)
    Virtual_Com_Port_SetConfiguration        0x08006a51   Thumb Code    14  usb_ch341.o(i.Virtual_Com_Port_SetConfiguration)
    Virtual_Com_Port_SetDeviceAddress        0x08006a69   Thumb Code     8  usb_ch341.o(i.Virtual_Com_Port_SetDeviceAddress)
    Virtual_Com_Port_SetLineCoding           0x08006a75   Thumb Code    20  usb_ch341.o(i.Virtual_Com_Port_SetLineCoding)
    Virtual_Com_Port_Status_In               0x08006a91   Thumb Code    16  usb_ch341.o(i.Virtual_Com_Port_Status_In)
    Virtual_Com_Port_Status_Out              0x08006aa5   Thumb Code     2  usb_ch341.o(i.Virtual_Com_Port_Status_Out)
    Virtual_Com_Port_init                    0x08006aa9   Thumb Code    50  usb_ch341.o(i.Virtual_Com_Port_init)
    WWDG_IRQHandler                          0x08006aed   Thumb Code     2  stm32f10x_it.o(i.WWDG_IRQHandler)
    __ARM_fpclassify                         0x08006aef   Thumb Code    40  fpclassify.o(i.__ARM_fpclassify)
    __ieee754_rem_pio2                       0x08006b19   Thumb Code   828  rred.o(i.__ieee754_rem_pio2)
    __kernel_cos                             0x08006ea1   Thumb Code   230  cos_i.o(i.__kernel_cos)
    __kernel_poly                            0x08006f9d   Thumb Code   170  poly.o(i.__kernel_poly)
    __kernel_sin                             0x08007049   Thumb Code   224  sin_i.o(i.__kernel_sin)
    __mathlib_dbl_infnan                     0x08007135   Thumb Code     6  dunder.o(i.__mathlib_dbl_infnan)
    __mathlib_dbl_infnan2                    0x0800713b   Thumb Code     4  dunder.o(i.__mathlib_dbl_infnan2)
    __mathlib_dbl_invalid                    0x0800713f   Thumb Code    12  dunder.o(i.__mathlib_dbl_invalid)
    __mathlib_dbl_underflow                  0x0800714d   Thumb Code    10  dunder.o(i.__mathlib_dbl_underflow)
    __scatterload_copy                       0x0800715d   Thumb Code    14  handlers.o(i.__scatterload_copy)
    __scatterload_null                       0x0800716b   Thumb Code     2  handlers.o(i.__scatterload_null)
    __scatterload_zeroinit                   0x0800716d   Thumb Code    14  handlers.o(i.__scatterload_zeroinit)
    __set_errno                              0x0800717d   Thumb Code     6  errno.o(i.__set_errno)
    _atan2                                   0x08007189   Thumb Code   214  imu.o(i._atan2)
    abort_mission                            0x08007271   Thumb Code    28  gps.o(i.abort_mission)
    annexCode                                0x08007299   Thumb Code   742  multiwii.o(i.annexCode)
    atan                                     0x080075d5   Thumb Code   474  atan.o(i.atan)
    atan2                                    0x080077f5   Thumb Code   346  atan2.o(i.atan2)
    blinkLED                                 0x08007975   Thumb Code    68  alarms.o(i.blinkLED)
    calculate_sum                            0x080079c1   Thumb Code    26  eeprom.o(i.calculate_sum)
    check_land                               0x080079dd   Thumb Code   124  gps.o(i.check_land)
    clearNav                                 0x08007aa1   Thumb Code    46  gps.o(i.clearNav)
    computeIMU                               0x08007ae9   Thumb Code   156  imu.o(i.computeIMU)
    computeRC                                0x08007b91   Thumb Code   238  rx.o(i.computeRC)
    configureReceiver                        0x08007c99   Thumb Code     2  rx.o(i.configureReceiver)
    constrain_int16                          0x08007c9b   Thumb Code    22  gps.o(i.constrain_int16)
    cos                                      0x08007cb1   Thumb Code   148  cos.o(i.cos)
    delay                                    0x08007d4d   Thumb Code    16  delay.o(i.delay)
    delay_ms                                 0x08007d61   Thumb Code    16  delay.o(i.delay_ms)
    eeprom_Continuous_reading                0x08007d75   Thumb Code   110  re_eeprom.o(i.eeprom_Continuous_reading)
    eeprom_read_block                        0x08007de5   Thumb Code    34  re_eeprom.o(i.eeprom_read_block)
    eeprom_write_block                       0x08007e0d   Thumb Code    34  re_eeprom.o(i.eeprom_write_block)
    evaluateCommand                          0x08007e35   Thumb Code  2902  protocol.o(i.evaluateCommand)
    evaluateOtherData                        0x080089cd   Thumb Code    18  protocol.o(i.evaluateOtherData)
    force_new_altitude                       0x080089e5   Thumb Code    16  gps.o(i.force_new_altitude)
    getEstimatedAttitude                     0x08008a01   Thumb Code   788  imu.o(i.getEstimatedAttitude)
    getMaxWPNumber                           0x08008d51   Thumb Code    28  eeprom.o(i.getMaxWPNumber)
    get_D                                    0x08008d6d   Thumb Code   104  gps.o(i.get_D)
    get_I                                    0x08008dd9   Thumb Code    96  gps.o(i.get_I)
    get_P                                    0x08008e39   Thumb Code    32  gps.o(i.get_P)
    get_middle                               0x08008e59   Thumb Code    74  output.o(i.get_middle)
    get_new_altitude                         0x08008ead   Thumb Code   268  gps.o(i.get_new_altitude)
    go_arm                                   0x08009085   Thumb Code    90  multiwii.o(i.go_arm)
    go_disarm                                0x080090f5   Thumb Code    24  multiwii.o(i.go_disarm)
    i2c_getSixRawADC                         0x08009179   Thumb Code    20  sensors.o(i.i2c_getSixRawADC)
    i2c_init                                 0x08009191   Thumb Code    14  sensors.o(i.i2c_init)
    i2c_readAck                              0x080091a5   Thumb Code    18  sensors.o(i.i2c_readAck)
    i2c_readNak                              0x080091b7   Thumb Code    22  sensors.o(i.i2c_readNak)
    i2c_read_reg_to_buf                      0x080091cd   Thumb Code   154  sensors.o(i.i2c_read_reg_to_buf)
    i2c_writeReg                             0x0800926d   Thumb Code    34  sensors.o(i.i2c_writeReg)
    initOutput                               0x08009295   Thumb Code    60  output.o(i.initOutput)
    initS                                    0x080092d5   Thumb Code    20  sensors.o(i.initS)
    initSensors                              0x080092e9   Thumb Code    30  sensors.o(i.initSensors)
    init_RTH                                 0x0800930d   Thumb Code   154  gps.o(i.init_RTH)
    initializeServo                          0x080093c9   Thumb Code     4  output.o(i.initializeServo)
    loadGPSdefaults                          0x080093cd   Thumb Code   190  eeprom.o(i.loadGPSdefaults)
    loop                                     0x08009491   Thumb Code  3346  multiwii.o(i.loop)
    main                                     0x0800a1a9   Thumb Code   234  multiwii.o(i.main)
    map                                      0x0800a2b1   Thumb Code    22  output.o(i.map)
    micros                                   0x0800a2c9   Thumb Code    30  timer.o(i.micros)
    millis                                   0x0800a2f1   Thumb Code     6  timer.o(i.millis)
    mixTable                                 0x0800a2fd   Thumb Code   596  output.o(i.mixTable)
    mul                                      0x0800a583   Thumb Code     8  imu.o(i.mul)
    pgm_read_byte_near                       0x0800a58b   Thumb Code     6  protocol.o(i.pgm_read_byte_near)
    readEEPROM                               0x0800a5f1   Thumb Code   268  eeprom.o(i.readEEPROM)
    readGlobalSet                            0x0800a70d   Thumb Code    42  eeprom.o(i.readGlobalSet)
    readRawRC                                0x0800a73d   Thumb Code    50  rx.o(i.readRawRC)
    recallGPSconf                            0x0800a779   Thumb Code    40  eeprom.o(i.recallGPSconf)
    recallWP                                 0x0800a7a5   Thumb Code    56  eeprom.o(i.recallWP)
    reset_PID                                0x0800a7e1   Thumb Code    10  gps.o(i.reset_PID)
    rotateV32                                0x0800a7eb   Thumb Code   116  imu.o(i.rotateV32)
    serialCom                                0x0800a8b1   Thumb Code   368  protocol.o(i.serialCom)
    set_new_altitude                         0x0800aaf1   Thumb Code    12  gps.o(i.set_new_altitude)
    setup                                    0x0800aafd   Thumb Code   130  multiwii.o(i.setup)
    sin                                      0x0800ab99   Thumb Code   150  sin.o(i.sin)
    sqrt                                     0x0800ac39   Thumb Code    76  sqrt.o(i.sqrt)
    storeWP                                  0x0800ac85   Thumb Code    52  eeprom.o(i.storeWP)
    store_uart_in_buf                        0x0800acbd   Thumb Code    48  serial.o(i.store_uart_in_buf)
    strlen_P                                 0x0800acf5   Thumb Code    18  protocol.o(i.strlen_P)
    uart_init                                0x0800ad29   Thumb Code   106  usart.o(i.uart_init)
    update_constants                         0x0800ada1   Thumb Code    44  eeprom.o(i.update_constants)
    wrap_18000                               0x0800add1   Thumb Code    26  gps.o(i.wrap_18000)
    wrap_36000                               0x0800adf1   Thumb Code    22  gps.o(i.wrap_36000)
    writeAllMotors                           0x0800ae09   Thumb Code    28  output.o(i.writeAllMotors)
    writeGPSconf                             0x0800ae29   Thumb Code    26  eeprom.o(i.writeGPSconf)
    writeGlobalSet                           0x0800ae49   Thumb Code    42  eeprom.o(i.writeGlobalSet)
    writeMotors                              0x0800ae79   Thumb Code    28  output.o(i.writeMotors)
    writeParams                              0x0800ae9d   Thumb Code    74  eeprom.o(i.writeParams)
    writeServos                              0x0800aef1   Thumb Code    50  output.o(i.writeServos)
    pidnames                                 0x0800af30   Data          48  multiwii.o(.constdata)
    boxnames                                 0x0800af60   Data          88  multiwii.o(.constdata)
    boxids                                   0x0800afb8   Data          14  multiwii.o(.constdata)
    Virtual_Com_Port_DeviceDescriptor        0x0800afc6   Data          18  usb_ch341.o(.constdata)
    Virtual_Com_Port_ConfigDescriptor        0x0800afd8   Data          39  usb_ch341.o(.constdata)
    Virtual_Com_Port_StringLangID            0x0800afff   Data           4  usb_ch341.o(.constdata)
    Virtual_Com_Port_StringVendor            0x0800b003   Data          38  usb_ch341.o(.constdata)
    Virtual_Com_Port_StringProduct           0x0800b029   Data          50  usb_ch341.o(.constdata)
    __mathlib_zero                           0x0800b138   Data           8  qnan.o(.constdata)
    Region$$Table$$Base                      0x0800b230   Number         0  anon$$obj.o(Region$$Table)
    Region$$Table$$Limit                     0x0800b250   Number         0  anon$$obj.o(Region$$Table)
    addr_                                    0x20000000   Data           2  eeprom.o(.data)
    addr_1                                   0x20000002   Data           2  eeprom.o(.data)
    user_mission_dorp                        0x20000018   Data           2  gps.o(.data)
    NaverrorI                                0x2000001c   Data           4  gps.o(.data)
    AlterrorI                                0x20000020   Data           4  gps.o(.data)
    NaverrorP                                0x20000024   Data           2  gps.o(.data)
    nav_bearing                              0x20000030   Data           4  gps.o(.data)
    land_detect                              0x2000003c   Data           1  gps.o(.data)
    GPS_Frame                                0x20000044   Data           1  gps.o(.data)
    gpsActualSpeed                           0x2000004c   Data           4  gps.o(.data)
    gpsDistanceToHome                        0x2000005c   Data           8  gps.o(.data)
    positionToHold                           0x20000064   Data           8  gps.o(.data)
    target_bearing                           0x20000084   Data           4  gps.o(.data)
    wp_distance                              0x20000090   Data           4  gps.o(.data)
    init_speed                               0x200000c0   Data          20  gps.o(.data)
    calcangle_roll                           0x200000d4   Data           2  gps.o(.data)
    calcangle_pitch                          0x200000d6   Data           2  gps.o(.data)
    crosroll_error                           0x200000d8   Data           2  gps.o(.data)
    crospitch_error                          0x200000da   Data           2  gps.o(.data)
    servo0                                   0x200000dc   Data           2  gps.o(.data)
    servo5                                   0x200000de   Data           2  gps.o(.data)
    sonarAltMy                               0x20000130   Data           2  imu.o(.data)
    PressAltMy                               0x20000132   Data           2  imu.o(.data)
    alt_switch                               0x20000134   Data           1  imu.o(.data)
    alt_diff                                 0x20000136   Data           2  imu.o(.data)
    currentT_getEstimatedAttitude            0x2000013c   Data           4  imu.o(.data)
    previousT_getEstimatedAttitude           0x20000140   Data           4  imu.o(.data)
    currentTime                              0x2000018c   Data           4  multiwii.o(.data)
    previousTime                             0x20000190   Data           2  multiwii.o(.data)
    cycleTime                                0x20000192   Data           2  multiwii.o(.data)
    calibratingA                             0x20000194   Data           2  multiwii.o(.data)
    calibratingB                             0x20000196   Data           2  multiwii.o(.data)
    calibratingG                             0x20000198   Data           2  multiwii.o(.data)
    magHold                                  0x2000019a   Data           2  multiwii.o(.data)
    headFreeModeHold                         0x2000019c   Data           2  multiwii.o(.data)
    vbatMin                                  0x2000019e   Data           1  multiwii.o(.data)
    AltHold                                  0x200001a0   Data           4  multiwii.o(.data)
    sonarAlt                                 0x200001a4   Data           2  multiwii.o(.data)
    BaroPID                                  0x200001a6   Data           2  multiwii.o(.data)
    errorAltitudeI                           0x200001a8   Data           2  multiwii.o(.data)
    BARO_angle                               0x200001aa   Data           4  multiwii.o(.data)
    gyroZero                                 0x200001ae   Data           6  multiwii.o(.data)
    att                                      0x200001b4   Data           8  multiwii.o(.data)
    debug                                    0x200001bc   Data           8  multiwii.o(.data)
    f                                        0x200001c4   Data           5  multiwii.o(.data)
    i2c_errors_count                         0x200001ca   Data           2  multiwii.o(.data)
    intPowerTrigger1                         0x200001cc   Data           2  multiwii.o(.data)
    failsafeEvents                           0x200001ce   Data           2  multiwii.o(.data)
    failsafeCnt                              0x200001d0   Data           2  multiwii.o(.data)
    rcCommand                                0x200001d2   Data           8  multiwii.o(.data)
    rcSerialCount                            0x200001da   Data           1  multiwii.o(.data)
    axisPID                                  0x200001dc   Data           6  multiwii.o(.data)
    servo                                    0x200001e2   Data          16  multiwii.o(.data)
    GPS_angle                                0x200001f6   Data           6  multiwii.o(.data)
    GPS_coord                                0x200001fc   Data           8  multiwii.o(.data)
    GPS_home                                 0x20000204   Data           8  multiwii.o(.data)
    GPS_hold                                 0x2000020c   Data           8  multiwii.o(.data)
    GPS_prev                                 0x20000214   Data           8  multiwii.o(.data)
    GPS_poi                                  0x2000021c   Data           8  multiwii.o(.data)
    GPS_numSat                               0x20000224   Data           1  multiwii.o(.data)
    GPS_distanceToHome                       0x20000226   Data           2  multiwii.o(.data)
    GPS_directionToHome                      0x20000228   Data           2  multiwii.o(.data)
    GPS_directionToPoi                       0x2000022c   Data           4  multiwii.o(.data)
    GPS_altitude                             0x20000230   Data           2  multiwii.o(.data)
    GPS_speed                                0x20000232   Data           2  multiwii.o(.data)
    GPS_update                               0x20000234   Data           1  multiwii.o(.data)
    GPS_ground_course                        0x20000236   Data           2  multiwii.o(.data)
    GPS_altitude_cel                         0x20000238   Data           2  multiwii.o(.data)
    NAV_state                                0x2000023a   Data           1  multiwii.o(.data)
    NAV_error                                0x2000023b   Data           1  multiwii.o(.data)
    prv_gps_modes                            0x2000023c   Data           1  multiwii.o(.data)
    nav_timer_stop                           0x20000240   Data           4  multiwii.o(.data)
    nav_hold_time                            0x20000244   Data           2  multiwii.o(.data)
    NAV_paused_at                            0x20000246   Data           1  multiwii.o(.data)
    next_step                                0x20000247   Data           1  multiwii.o(.data)
    jump_times                               0x20000248   Data           2  multiwii.o(.data)
    analogReader                             0x20000251   Data           1  multiwii.o(.data)
    nav                                      0x20000252   Data           4  multiwii.o(.data)
    nav_rated                                0x20000256   Data           4  multiwii.o(.data)
    original_altitude                        0x2000025c   Data           4  multiwii.o(.data)
    target_altitude                          0x20000260   Data           4  multiwii.o(.data)
    alt_to_hold                              0x20000264   Data           4  multiwii.o(.data)
    alt_change_timer                         0x20000268   Data           4  multiwii.o(.data)
    alt_change_flag                          0x2000026c   Data           1  multiwii.o(.data)
    alt_change                               0x20000270   Data           4  multiwii.o(.data)
    PWM_PIN                                  0x2000029c   Data           8  output.o(.data)
    atomicServo                              0x200002a4   Data           8  output.o(.data)
    rcValue                                  0x200002fc   Data          24  rx.o(.data)
    SysTick_Handler_times                    0x20000328   Data           4  timer.o(.data)
    delays_u                                 0x2000032c   Data           4  timer.o(.data)
    runtime_us                               0x20000330   Data           4  timer.o(.data)
    runtime_ms                               0x20000334   Data           4  timer.o(.data)
    micros_time                              0x20000338   Data           4  timer.o(.data)
    millis_time                              0x2000033c   Data           4  timer.o(.data)
    delays                                   0x20000350   Data           4  delay.o(.data)
    SBUS_FLAG_                               0x20000359   Data           1  usart.o(.data)
    ch341_baud                               0x20000364   Data           2  usb_ch341.o(.data)
    bDeviceState                             0x20000368   Data           4  usb_ch341.o(.data)
    fSuspendEnabled                          0x2000036c   Data           1  usb_ch341.o(.data)
    ResumeS                                  0x2000036d   Data           2  usb_ch341.o(.data)
    ch341_state                              0x20000370   Data           4  usb_ch341.o(.data)
    Request                                  0x20000374   Data           1  usb_ch341.o(.data)
    linecoding                               0x20000378   Data           8  usb_ch341.o(.data)
    Device_Table                             0x20000380   Data           2  usb_ch341.o(.data)
    Device_Property                          0x20000384   Data          48  usb_ch341.o(.data)
    User_Standard_Requests                   0x200003b4   Data          36  usb_ch341.o(.data)
    Device_Descriptor                        0x200003d8   Data           8  usb_ch341.o(.data)
    Config_Descriptor                        0x200003e0   Data           8  usb_ch341.o(.data)
    String_Descriptor                        0x200003e8   Data          32  usb_ch341.o(.data)
    wIstr                                    0x2000040a   Data           2  usb_ch341.o(.data)
    bIntPackSOF                              0x2000040c   Data           1  usb_ch341.o(.data)
    pEpInt_IN                                0x20000410   Data          28  usb_ch341.o(.data)
    pEpInt_OUT                               0x2000042c   Data          28  usb_ch341.o(.data)
    SaveRState                               0x20000448   Data           2  usb_ch341.o(.data)
    SaveTState                               0x2000044a   Data           2  usb_ch341.o(.data)
    EPindex                                  0x2000044c   Data           1  usb_ch341.o(.data)
    pInformation                             0x20000450   Data           4  usb_ch341.o(.data)
    pProperty                                0x20000454   Data           4  usb_ch341.o(.data)
    SaveState                                0x20000458   Data           2  usb_ch341.o(.data)
    wInterrupt_Mask                          0x2000045a   Data           2  usb_ch341.o(.data)
    pUser_Standard_Requests                  0x2000045c   Data           4  usb_ch341.o(.data)
    Virtual_Com_Port_StringSerial            0x20000460   Data          26  usb_ch341.o(.data)
    StatusInfo                               0x2000047a   Data           2  usb_ch341.o(.data)
    Data_Mul_MaxPacketSize                   0x2000047c   Data           1  usb_ch341.o(.data)
    posholdPID_PARAM                         0x200004b8   Data          16  gps.o(.bss)
    poshold_ratePID_PARAM                    0x200004c8   Data          16  gps.o(.bss)
    navPID_PARAM                             0x200004d8   Data          16  gps.o(.bss)
    altPID_PARAM                             0x200004e8   Data          16  gps.o(.bss)
    posholdPID                               0x200004f8   Data          40  gps.o(.bss)
    poshold_ratePID                          0x20000520   Data          40  gps.o(.bss)
    navPID                                   0x20000548   Data          40  gps.o(.bss)
    rcOptions                                0x20000744   Data          13  multiwii.o(.bss)
    imu                                      0x20000752   Data          30  multiwii.o(.bss)
    ins                                      0x20000770   Data         104  multiwii.o(.bss)
    analog                                   0x200007d8   Data          16  multiwii.o(.bss)
    alt                                      0x200007e8   Data          16  multiwii.o(.bss)
    D_U                                      0x200007f8   Data          16  multiwii.o(.bss)
    rcData                                   0x20000808   Data          24  multiwii.o(.bss)
    rcSerial                                 0x20000820   Data          16  multiwii.o(.bss)
    lookupPitchRollRC                        0x20000830   Data          10  multiwii.o(.bss)
    lookupThrottleRC                         0x2000083a   Data          22  multiwii.o(.bss)
    motor                                    0x20000850   Data          16  multiwii.o(.bss)
    global_conf                              0x20000860   Data          24  multiwii.o(.bss)
    conf                                     0x20000878   Data         144  multiwii.o(.bss)
    GPS_conf                                 0x20000908   Data          32  multiwii.o(.bss)
    GPS_speed_smooth                         0x20000928   Data          20  multiwii.o(.bss)
    mission_step                             0x2000093c   Data          28  multiwii.o(.bss)
    alarmArray                               0x20000958   Data          10  multiwii.o(.bss)
    serialBufferRX                           0x20000994   Data        1024  serial.o(.bss)
    SBUSBuf                                  0x20000fdc   Data          60  usart.o(.bss)
    testdata                                 0x20001018   Data         256  usart.o(.bss)
    Cap_CH                                   0x20001118   Data          26  usart.o(.bss)
    Device_Info                              0x20001134   Data          28  usb_ch341.o(.bss)
    buffer_out                               0x20001150   Data          32  usb_ch341.o(.bss)
    __initial_sp                             0x20004170   Data           0  startup_stm32f10x_hd.o(STACK)



==============================================================================

Memory Map of the image

  Image Entry point : 0x08000131

  Load Region LR_IROM1 (Base: 0x08000000, Size: 0x0000b6e0, Max: 0x00010000, ABSOLUTE, COMPRESSED[0x0000b334])

    Execution Region ER_IROM1 (Exec base: 0x08000000, Load base: 0x08000000, Size: 0x0000b250, Max: 0x00010000, ABSOLUTE)

    Exec Addr    Load Addr    Size         Type   Attr      Idx    E Section Name        Object

    0x08000000   0x08000000   0x00000130   Data   RO         1998    RESET               startup_stm32f10x_hd.o
    0x08000130   0x08000130   0x00000000   Code   RO         3837  * .ARM.Collect$$$$00000000  mc_w.l(entry.o)
    0x08000130   0x08000130   0x00000004   Code   RO         3949    .ARM.Collect$$$$00000001  mc_w.l(entry2.o)
    0x08000134   0x08000134   0x00000004   Code   RO         3952    .ARM.Collect$$$$00000004  mc_w.l(entry5.o)
    0x08000138   0x08000138   0x00000000   Code   RO         3954    .ARM.Collect$$$$00000008  mc_w.l(entry7b.o)
    0x08000138   0x08000138   0x00000000   Code   RO         3956    .ARM.Collect$$$$0000000A  mc_w.l(entry8b.o)
    0x08000138   0x08000138   0x00000008   Code   RO         3957    .ARM.Collect$$$$0000000B  mc_w.l(entry9a.o)
    0x08000140   0x08000140   0x00000000   Code   RO         3959    .ARM.Collect$$$$0000000D  mc_w.l(entry10a.o)
    0x08000140   0x08000140   0x00000000   Code   RO         3961    .ARM.Collect$$$$0000000F  mc_w.l(entry11a.o)
    0x08000140   0x08000140   0x00000004   Code   RO         3950    .ARM.Collect$$$$00002712  mc_w.l(entry2.o)
    0x08000144   0x08000144   0x00000024   Code   RO         1999    .text               startup_stm32f10x_hd.o
    0x08000168   0x08000168   0x00000020   Code   RO         3840    .text               mc_w.l(llushr.o)
    0x08000188   0x08000188   0x000000b0   Code   RO         3870    .text               mf_w.l(fadd.o)
    0x08000238   0x08000238   0x00000064   Code   RO         3872    .text               mf_w.l(fmul.o)
    0x0800029c   0x0800029c   0x0000007c   Code   RO         3874    .text               mf_w.l(fdiv.o)
    0x08000318   0x08000318   0x0000014e   Code   RO         3876    .text               mf_w.l(dadd.o)
    0x08000466   0x08000466   0x000000e4   Code   RO         3878    .text               mf_w.l(dmul.o)
    0x0800054a   0x0800054a   0x000000de   Code   RO         3880    .text               mf_w.l(ddiv.o)
    0x08000628   0x08000628   0x00000012   Code   RO         3882    .text               mf_w.l(fflti.o)
    0x0800063a   0x0800063a   0x0000000a   Code   RO         3884    .text               mf_w.l(ffltui.o)
    0x08000644   0x08000644   0x0000001c   Code   RO         3886    .text               mf_w.l(ffltul.o)
    0x08000660   0x08000660   0x00000022   Code   RO         3888    .text               mf_w.l(dflti.o)
    0x08000682   0x08000682   0x0000001a   Code   RO         3890    .text               mf_w.l(dfltui.o)
    0x0800069c   0x0800069c   0x00000032   Code   RO         3892    .text               mf_w.l(ffixi.o)
    0x080006ce   0x080006ce   0x0000003e   Code   RO         3894    .text               mf_w.l(dfixi.o)
    0x0800070c   0x0800070c   0x00000032   Code   RO         3896    .text               mf_w.l(dfixui.o)
    0x0800073e   0x0800073e   0x00000026   Code   RO         3898    .text               mf_w.l(f2d.o)
    0x08000764   0x08000764   0x00000030   Code   RO         3900    .text               mf_w.l(cdcmple.o)
    0x08000794   0x08000794   0x00000030   Code   RO         3902    .text               mf_w.l(cdrcmple.o)
    0x080007c4   0x080007c4   0x00000038   Code   RO         3904    .text               mf_w.l(d2f.o)
    0x080007fc   0x080007fc   0x00000014   Code   RO         3906    .text               mf_w.l(cfcmple.o)
    0x08000810   0x08000810   0x00000014   Code   RO         3908    .text               mf_w.l(cfrcmple.o)
    0x08000824   0x08000824   0x0000001e   Code   RO         3963    .text               mc_w.l(llshl.o)
    0x08000842   0x08000842   0x00000024   Code   RO         3965    .text               mc_w.l(llsshr.o)
    0x08000866   0x08000866   0x00000000   Code   RO         3974    .text               mc_w.l(iusefp.o)
    0x08000866   0x08000866   0x0000006e   Code   RO         3975    .text               mf_w.l(fepilogue.o)
    0x080008d4   0x080008d4   0x000000ba   Code   RO         3977    .text               mf_w.l(depilogue.o)
    0x0800098e   0x0800098e   0x000000a2   Code   RO         3979    .text               mf_w.l(dsqrt.o)
    0x08000a30   0x08000a30   0x00000024   Code   RO         3985    .text               mc_w.l(init.o)
    0x08000a54   0x08000a54   0x0000002e   Code   RO         3987    .text               mf_w.l(dscalb.o)
    0x08000a82   0x08000a82   0x00000056   Code   RO         3997    .text               mc_w.l(__dczerorl2.o)
    0x08000ad8   0x08000ad8   0x00000290   Code   RO          867    i.ACC_Common        sensors.o
    0x08000d68   0x08000d68   0x00000054   Code   RO          868    i.ACC_getADC        sensors.o
    0x08000dbc   0x08000dbc   0x0000000e   Code   RO          869    i.ACC_init          sensors.o
    0x08000dca   0x08000dca   0x00000002   Code   RO         1116    i.ADC1_2_IRQHandler  stm32f10x_it.o
    0x08000dcc   0x08000dcc   0x00000002   Code   RO         1117    i.ADC3_IRQHandler   stm32f10x_it.o
    0x08000dce   0x08000dce   0x00000002   PAD
    0x08000dd0   0x08000dd0   0x00000044   Code   RO         1555    i.AT24CXX_Check     re_eeprom.o
    0x08000e14   0x08000e14   0x00000052   Code   RO         1556    i.AT24CXX_ReadOneByte  re_eeprom.o
    0x08000e66   0x08000e66   0x0000004c   Code   RO         1557    i.AT24CXX_WriteOneByte  re_eeprom.o
    0x08000eb2   0x08000eb2   0x0000012c   Code   RO         1558    i.AT24CXX_write_Page  re_eeprom.o
    0x08000fde   0x08000fde   0x00000002   PAD
    0x08000fe0   0x08000fe0   0x0000001c   Code   RO         1118    i.BusFault_Handler  stm32f10x_it.o
    0x08000ffc   0x08000ffc   0x0000000c   Code   RO         2059    i.ByteSwap          usb_ch341.o
    0x08001008   0x08001008   0x00000002   Code   RO         1119    i.CAN1_RX1_IRQHandler  stm32f10x_it.o
    0x0800100a   0x0800100a   0x00000002   Code   RO         1120    i.CAN1_SCE_IRQHandler  stm32f10x_it.o
    0x0800100c   0x0800100c   0x00000328   Code   RO         2061    i.CTR_LP            usb_ch341.o
    0x08001334   0x08001334   0x00000168   Code   RO         2003    i.Capture           usart.o
    0x0800149c   0x0800149c   0x00000034   Code   RO         2062    i.ClearDTOG_RX      usb_ch341.o
    0x080014d0   0x080014d0   0x00000034   Code   RO         2063    i.ClearDTOG_TX      usb_ch341.o
    0x08001504   0x08001504   0x00000020   Code   RO         2068    i.Clear_Status_Out  usb_ch341.o
    0x08001524   0x08001524   0x000002d0   Code   RO          238    i.CradleControl     gps.o
    0x080017f4   0x080017f4   0x00000002   Code   RO         1121    i.DMA1_Channel1_IRQHandler  stm32f10x_it.o
    0x080017f6   0x080017f6   0x00000002   Code   RO         1122    i.DMA1_Channel2_IRQHandler  stm32f10x_it.o
    0x080017f8   0x080017f8   0x00000002   Code   RO         1123    i.DMA1_Channel3_IRQHandler  stm32f10x_it.o
    0x080017fa   0x080017fa   0x00000002   Code   RO         1124    i.DMA1_Channel4_IRQHandler  stm32f10x_it.o
    0x080017fc   0x080017fc   0x00000002   Code   RO         1125    i.DMA1_Channel5_IRQHandler  stm32f10x_it.o
    0x080017fe   0x080017fe   0x00000002   Code   RO         1126    i.DMA1_Channel6_IRQHandler  stm32f10x_it.o
    0x08001800   0x08001800   0x00000002   Code   RO         1127    i.DMA1_Channel7_IRQHandler  stm32f10x_it.o
    0x08001802   0x08001802   0x00000002   Code   RO         1128    i.DMA2_Channel1_IRQHandler  stm32f10x_it.o
    0x08001804   0x08001804   0x00000002   Code   RO         1129    i.DMA2_Channel2_IRQHandler  stm32f10x_it.o
    0x08001806   0x08001806   0x00000002   Code   RO         1130    i.DMA2_Channel3_IRQHandler  stm32f10x_it.o
    0x08001808   0x08001808   0x00000002   Code   RO         1131    i.DMA2_Channel4_5_IRQHandler  stm32f10x_it.o
    0x0800180a   0x0800180a   0x00000002   PAD
    0x0800180c   0x0800180c   0x000000c0   Code   RO         2069    i.DataStageIn       usb_ch341.o
    0x080018cc   0x080018cc   0x000000bc   Code   RO         2070    i.DataStageOut      usb_ch341.o
    0x08001988   0x08001988   0x00000298   Code   RO         2071    i.Data_Setup0       usb_ch341.o
    0x08001c20   0x08001c20   0x00000002   Code   RO         1132    i.DebugMon_Handler  stm32f10x_it.o
    0x08001c22   0x08001c22   0x00000012   Code   RO         1741    i.Delay_1us         gy_86.o
    0x08001c34   0x08001c34   0x00000058   Code   RO          870    i.Device_Mag_getADC  sensors.o
    0x08001c8c   0x08001c8c   0x0000001e   Code   RO         1559    i.EEPROM_Delay_1us  re_eeprom.o
    0x08001caa   0x08001caa   0x00000002   PAD
    0x08001cac   0x08001cac   0x00000038   Code   RO         1560    i.EEPROM_I2C_GPIO_Config  re_eeprom.o
    0x08001ce4   0x08001ce4   0x00000060   Code   RO         1561    i.EEPROM_I2C_RecvByte  re_eeprom.o
    0x08001d44   0x08001d44   0x00000054   Code   RO         1562    i.EEPROM_I2C_SendACK  re_eeprom.o
    0x08001d98   0x08001d98   0x00000070   Code   RO         1563    i.EEPROM_I2C_SendByte  re_eeprom.o
    0x08001e08   0x08001e08   0x0000008c   Code   RO         1564    i.EEPROM_I2C_Start  re_eeprom.o
    0x08001e94   0x08001e94   0x00000050   Code   RO         1565    i.EEPROM_I2C_Stop   re_eeprom.o
    0x08001ee4   0x08001ee4   0x00000088   Code   RO         1566    i.EEPROM_I2C_WaitAck  re_eeprom.o
    0x08001f6c   0x08001f6c   0x00000002   Code   RO         2072    i.EP1_IN_Callback   usb_ch341.o
    0x08001f6e   0x08001f6e   0x00000002   Code   RO         2073    i.EP2_IN_Callback   usb_ch341.o
    0x08001f70   0x08001f70   0x0000002c   Code   RO         2074    i.EP2_OUT_Callback  usb_ch341.o
    0x08001f9c   0x08001f9c   0x00000002   Code   RO         1133    i.EXTI0_IRQHandler  stm32f10x_it.o
    0x08001f9e   0x08001f9e   0x00000002   Code   RO         1134    i.EXTI15_10_IRQHandler  stm32f10x_it.o
    0x08001fa0   0x08001fa0   0x00000002   Code   RO         1135    i.EXTI2_IRQHandler  stm32f10x_it.o
    0x08001fa2   0x08001fa2   0x00000002   Code   RO         1136    i.EXTI3_IRQHandler  stm32f10x_it.o
    0x08001fa4   0x08001fa4   0x00000002   Code   RO         1137    i.EXTI9_5_IRQHandler  stm32f10x_it.o
    0x08001fa6   0x08001fa6   0x00000002   Code   RO         1138    i.FLASH_IRQHandler  stm32f10x_it.o
    0x08001fa8   0x08001fa8   0x00000002   Code   RO         1139    i.FSMC_IRQHandler   stm32f10x_it.o
    0x08001faa   0x08001faa   0x00000002   PAD
    0x08001fac   0x08001fac   0x000009e8   Code   RO          239    i.FW_NAV            gps.o
    0x08002994   0x08002994   0x000000fc   Code   RO          240    i.FW_NavSpeed       gps.o
    0x08002a90   0x08002a90   0x0000002c   Code   RO          702    i.GPIO_Configuration  multiwii.o
    0x08002abc   0x08002abc   0x000000a0   Code   RO         2770    i.GPIO_Init         STM32F10xR.LIB(stm32f10x_gpio.o)
    0x08002b5c   0x08002b5c   0x00000004   Code   RO         2777    i.GPIO_ResetBits    STM32F10xR.LIB(stm32f10x_gpio.o)
    0x08002b60   0x08002b60   0x00000004   Code   RO         2776    i.GPIO_SetBits      STM32F10xR.LIB(stm32f10x_gpio.o)
    0x08002b64   0x08002b64   0x00000abc   Code   RO          241    i.GPS_Compute       gps.o
    0x08003620   0x08003620   0x000000cc   Code   RO          242    i.GPS_adjust_heading  gps.o
    0x080036ec   0x080036ec   0x000000a4   Code   RO          243    i.GPS_bearing       gps.o
    0x08003790   0x08003790   0x00000094   Code   RO          244    i.GPS_calc_desired_speed  gps.o
    0x08003824   0x08003824   0x00000044   Code   RO          246    i.GPS_calc_longitude_scaling  gps.o
    0x08003868   0x08003868   0x00000204   Code   RO          247    i.GPS_calc_nav_rate  gps.o
    0x08003a6c   0x08003a6c   0x00000150   Code   RO          248    i.GPS_calc_poshold  gps.o
    0x08003bbc   0x08003bbc   0x00000140   Code   RO          249    i.GPS_calc_velocity  gps.o
    0x08003cfc   0x08003cfc   0x00000084   Code   RO          251    i.GPS_distance_cm   gps.o
    0x08003d80   0x08003d80   0x000001d4   Code   RO          252    i.GPS_newFrame      gps.o
    0x08003f54   0x08003f54   0x0000005c   Code   RO          253    i.GPS_reset_home_position  gps.o
    0x08003fb0   0x08003fb0   0x000000b4   Code   RO          254    i.GPS_reset_nav     gps.o
    0x08004064   0x08004064   0x00000178   Code   RO          255    i.GPS_set_next_wp   gps.o
    0x080041dc   0x080041dc   0x000001b0   Code   RO          256    i.GPS_set_pids      gps.o
    0x0800438c   0x0800438c   0x000000ec   Code   RO          257    i.GPS_update_crosstrack  gps.o
    0x08004478   0x08004478   0x000000e4   Code   RO          871    i.GYRO_Common       sensors.o
    0x0800455c   0x0800455c   0x00000020   Code   RO         2087    i.GetEPRxAddr       usb_ch341.o
    0x0800457c   0x0800457c   0x00000024   Code   RO         2088    i.GetEPRxCount      usb_ch341.o
    0x080045a0   0x080045a0   0x00000020   Code   RO         2090    i.GetEPTxAddr       usb_ch341.o
    0x080045c0   0x080045c0   0x00000018   Code   RO         2092    i.GetEPTxStatus     usb_ch341.o
    0x080045d8   0x080045d8   0x00000048   Code   RO         2098    i.Get_SerialNum     usb_ch341.o
    0x08004620   0x08004620   0x00000058   Code   RO          872    i.Gyro_getADC       sensors.o
    0x08004678   0x08004678   0x0000003c   Code   RO          873    i.Gyro_init         sensors.o
    0x080046b4   0x080046b4   0x0000002c   Code   RO         1140    i.HardFault_Handler  stm32f10x_it.o
    0x080046e0   0x080046e0   0x00000002   Code   RO         1141    i.I2C2_ER_IRQHandler  stm32f10x_it.o
    0x080046e2   0x080046e2   0x00000002   Code   RO         1142    i.I2C2_EV_IRQHandler  stm32f10x_it.o
    0x080046e4   0x080046e4   0x0000002c   Code   RO         1743    i.I2C_GPIO_Config   gy_86.o
    0x08004710   0x08004710   0x00000060   Code   RO         1744    i.I2C_RecvByte      gy_86.o
    0x08004770   0x08004770   0x00000054   Code   RO         1745    i.I2C_SendACK       gy_86.o
    0x080047c4   0x080047c4   0x00000078   Code   RO         1746    i.I2C_SendByte      gy_86.o
    0x0800483c   0x0800483c   0x0000008c   Code   RO         1747    i.I2C_Start         gy_86.o
    0x080048c8   0x080048c8   0x00000050   Code   RO         1748    i.I2C_Stop          gy_86.o
    0x08004918   0x08004918   0x00000088   Code   RO         1749    i.I2C_WaitAck       gy_86.o
    0x080049a0   0x080049a0   0x00000070   Code   RO         2099    i.In0_Process       usb_ch341.o
    0x08004a10   0x08004a10   0x0000004c   Code   RO          497    i.InvSqrt           imu.o
    0x08004a5c   0x08004a5c   0x00000030   Code   RO         1675    i.JTAG_Set          sys.o
    0x08004a8c   0x08004a8c   0x00000054   Code   RO          703    i.LED_init          multiwii.o
    0x08004ae0   0x08004ae0   0x00000154   Code   RO          138    i.LoadDefaults      eeprom.o
    0x08004c34   0x08004c34   0x00000068   Code   RO         1676    i.MYRCC_DeInit      sys.o
    0x08004c9c   0x08004c9c   0x00000014   Code   RO         1679    i.MY_NVIC_SetVectorTable  sys.o
    0x08004cb0   0x08004cb0   0x0000018c   Code   RO          874    i.Mag_getADC        sensors.o
    0x08004e3c   0x08004e3c   0x0000001a   Code   RO          875    i.Mag_init          sensors.o
    0x08004e56   0x08004e56   0x00000002   PAD
    0x08004e58   0x08004e58   0x0000001c   Code   RO         1143    i.MemManage_Handler  stm32f10x_it.o
    0x08004e74   0x08004e74   0x00000018   Code   RO         1144    i.NMI_Handler       stm32f10x_it.o
    0x08004e8c   0x08004e8c   0x00000002   Code   RO         2101    i.NOP_Process       usb_ch341.o
    0x08004e8e   0x08004e8e   0x00000002   PAD
    0x08004e90   0x08004e90   0x00000070   Code   RO         1960    i.NVIC_Init         misc.o
    0x08004f00   0x08004f00   0x00000014   Code   RO         1961    i.NVIC_PriorityGroupConfig  misc.o
    0x08004f14   0x08004f14   0x00000014   Code   RO         1962    i.NVIC_SetVectorTable  misc.o
    0x08004f28   0x08004f28   0x00000144   Code   RO         2102    i.NoData_Setup0     usb_ch341.o
    0x0800506c   0x0800506c   0x00000050   Code   RO         2103    i.Out0_Process      usb_ch341.o
    0x080050bc   0x080050bc   0x00000028   Code   RO         2104    i.PMAToUserBufferCopy  usb_ch341.o
    0x080050e4   0x080050e4   0x00000002   Code   RO         1145    i.PVD_IRQHandler    stm32f10x_it.o
    0x080050e6   0x080050e6   0x00000002   Code   RO         1146    i.PendSV_Handler    stm32f10x_it.o
    0x080050e8   0x080050e8   0x00000048   Code   RO         2105    i.Post0_Process     usb_ch341.o
    0x08005130   0x08005130   0x00000040   Code   RO         2107    i.PowerOn           usb_ch341.o
    0x08005170   0x08005170   0x00000018   Code   RO         2918    i.RCC_APB1PeriphClockCmd  STM32F10xR.LIB(stm32f10x_rcc.o)
    0x08005188   0x08005188   0x00000018   Code   RO         2920    i.RCC_APB1PeriphResetCmd  STM32F10xR.LIB(stm32f10x_rcc.o)
    0x080051a0   0x080051a0   0x00000018   Code   RO         2917    i.RCC_APB2PeriphClockCmd  STM32F10xR.LIB(stm32f10x_rcc.o)
    0x080051b8   0x080051b8   0x00000018   Code   RO         2919    i.RCC_APB2PeriphResetCmd  STM32F10xR.LIB(stm32f10x_rcc.o)
    0x080051d0   0x080051d0   0x00000094   Code   RO         2915    i.RCC_GetClocksFreq  STM32F10xR.LIB(stm32f10x_rcc.o)
    0x08005264   0x08005264   0x00000002   Code   RO         1147    i.RCC_IRQHandler    stm32f10x_it.o
    0x08005266   0x08005266   0x00000002   PAD
    0x08005268   0x08005268   0x0000000c   Code   RO         2909    i.RCC_USBCLKConfig  STM32F10xR.LIB(stm32f10x_rcc.o)
    0x08005274   0x08005274   0x00000002   Code   RO         1148    i.RTCAlarm_IRQHandler  stm32f10x_it.o
    0x08005276   0x08005276   0x00000002   Code   RO         1149    i.RTC_IRQHandler    stm32f10x_it.o
    0x08005278   0x08005278   0x00000002   Code   RO         1150    i.SDIO_IRQHandler   stm32f10x_it.o
    0x0800527a   0x0800527a   0x00000002   Code   RO         1151    i.SPI1_IRQHandler   stm32f10x_it.o
    0x0800527c   0x0800527c   0x00000002   Code   RO         1152    i.SPI2_IRQHandler   stm32f10x_it.o
    0x0800527e   0x0800527e   0x00000002   Code   RO         1153    i.SPI3_IRQHandler   stm32f10x_it.o
    0x08005280   0x08005280   0x00000002   Code   RO         1154    i.SVC_Handler       stm32f10x_it.o
    0x08005282   0x08005282   0x00000002   PAD
    0x08005284   0x08005284   0x00000044   Code   RO         1013    i.SerialAvailable   serial.o
    0x080052c8   0x080052c8   0x0000004c   Code   RO         1015    i.SerialRead        serial.o
    0x08005314   0x08005314   0x0000002c   Code   RO         1016    i.SerialSerialize   serial.o
    0x08005340   0x08005340   0x00000044   Code   RO         1018    i.SerialUsedTXBuff  serial.o
    0x08005384   0x08005384   0x00000010   Code   RO         2110    i.SetBTABLE         usb_ch341.o
    0x08005394   0x08005394   0x0000004c   Code   RO         2113    i.SetDeviceAddress  usb_ch341.o
    0x080053e0   0x080053e0   0x00000024   Code   RO         2125    i.SetEPRxAddr       usb_ch341.o
    0x08005404   0x08005404   0x0000004c   Code   RO         2126    i.SetEPRxCount      usb_ch341.o
    0x08005450   0x08005450   0x00000038   Code   RO         2127    i.SetEPRxStatus     usb_ch341.o
    0x08005488   0x08005488   0x0000002c   Code   RO         2128    i.SetEPRxValid      usb_ch341.o
    0x080054b4   0x080054b4   0x00000020   Code   RO         2129    i.SetEPTxAddr       usb_ch341.o
    0x080054d4   0x080054d4   0x0000001c   Code   RO         2130    i.SetEPTxCount      usb_ch341.o
    0x080054f0   0x080054f0   0x00000038   Code   RO         2131    i.SetEPTxStatus     usb_ch341.o
    0x08005528   0x08005528   0x0000002c   Code   RO         2132    i.SetEPTxValid      usb_ch341.o
    0x08005554   0x08005554   0x00000024   Code   RO         2133    i.SetEPType         usb_ch341.o
    0x08005578   0x08005578   0x00000008   Code   RO         1926    i.SetSysClock       system_stm32f10x.o
    0x08005580   0x08005580   0x000000e0   Code   RO         1927    i.SetSysClockTo72   system_stm32f10x.o
    0x08005660   0x08005660   0x00000012   Code   RO         2137    i.Set_USBClock      usb_ch341.o
    0x08005672   0x08005672   0x00000002   PAD
    0x08005674   0x08005674   0x000000b0   Code   RO         2138    i.Setup0_Process    usb_ch341.o
    0x08005724   0x08005724   0x00000078   Code   RO         1751    i.Single_WriteI2C   gy_86.o
    0x0800579c   0x0800579c   0x0000015c   Code   RO         2139    i.Standard_ClearFeature  usb_ch341.o
    0x080058f8   0x080058f8   0x0000002c   Code   RO         2140    i.Standard_GetConfiguration  usb_ch341.o
    0x08005924   0x08005924   0x00000024   Code   RO         2141    i.Standard_GetDescriptorData  usb_ch341.o
    0x08005948   0x08005948   0x0000002c   Code   RO         2142    i.Standard_GetInterface  usb_ch341.o
    0x08005974   0x08005974   0x000000f0   Code   RO         2143    i.Standard_GetStatus  usb_ch341.o
    0x08005a64   0x08005a64   0x00000048   Code   RO         2144    i.Standard_SetConfiguration  usb_ch341.o
    0x08005aac   0x08005aac   0x00000028   Code   RO         2145    i.Standard_SetDeviceFeature  usb_ch341.o
    0x08005ad4   0x08005ad4   0x000000c0   Code   RO         2146    i.Standard_SetEndPointFeature  usb_ch341.o
    0x08005b94   0x08005b94   0x0000006c   Code   RO         2147    i.Standard_SetInterface  usb_ch341.o
    0x08005c00   0x08005c00   0x00000090   Code   RO         1680    i.Stm32_Clock_Init  sys.o
    0x08005c90   0x08005c90   0x00000048   Code   RO         1452    i.SysTick_Handler   timer.o
    0x08005cd8   0x08005cd8   0x00000060   Code   RO         1929    i.SystemInit        system_stm32f10x.o
    0x08005d38   0x08005d38   0x00000002   Code   RO         1155    i.TAMPER_IRQHandler  stm32f10x_it.o
    0x08005d3a   0x08005d3a   0x00000002   Code   RO         1156    i.TIM1_BRK_IRQHandler  stm32f10x_it.o
    0x08005d3c   0x08005d3c   0x00000002   Code   RO         1157    i.TIM1_TRG_COM_IRQHandler  stm32f10x_it.o
    0x08005d3e   0x08005d3e   0x00000002   Code   RO         1158    i.TIM1_UP_IRQHandler  stm32f10x_it.o
    0x08005d40   0x08005d40   0x00000002   Code   RO         1159    i.TIM3_IRQHandler   stm32f10x_it.o
    0x08005d42   0x08005d42   0x00000002   PAD
    0x08005d44   0x08005d44   0x00000118   Code   RO         1456    i.TIM3_PWM_Init     timer.o
    0x08005e5c   0x08005e5c   0x00000002   Code   RO         1160    i.TIM4_IRQHandler   stm32f10x_it.o
    0x08005e5e   0x08005e5e   0x00000002   PAD
    0x08005e60   0x08005e60   0x0000010c   Code   RO         1457    i.TIM4_PWM_Init     timer.o
    0x08005f6c   0x08005f6c   0x00000002   Code   RO         1161    i.TIM6_IRQHandler   stm32f10x_it.o
    0x08005f6e   0x08005f6e   0x00000002   Code   RO         1162    i.TIM7_IRQHandler   stm32f10x_it.o
    0x08005f70   0x08005f70   0x00000002   Code   RO         1163    i.TIM8_BRK_IRQHandler  stm32f10x_it.o
    0x08005f72   0x08005f72   0x00000002   Code   RO         1164    i.TIM8_CC_IRQHandler  stm32f10x_it.o
    0x08005f74   0x08005f74   0x00000002   Code   RO         1165    i.TIM8_TRG_COM_IRQHandler  stm32f10x_it.o
    0x08005f76   0x08005f76   0x00000002   Code   RO         1166    i.TIM8_UP_IRQHandler  stm32f10x_it.o
    0x08005f78   0x08005f78   0x00000004   Code   RO         3169    i.TIM_SetCompare1   STM32F10xR.LIB(stm32f10x_tim.o)
    0x08005f7c   0x08005f7c   0x00000004   Code   RO         3170    i.TIM_SetCompare2   STM32F10xR.LIB(stm32f10x_tim.o)
    0x08005f80   0x08005f80   0x00000024   Code   RO         2004    i.USART1_IRQHandler  usart.o
    0x08005fa4   0x08005fa4   0x000000a4   Code   RO         2005    i.USART2_Configuration  usart.o
    0x08006048   0x08006048   0x00000024   Code   RO         2006    i.USART2_IRQHandler  usart.o
    0x0800606c   0x0800606c   0x000000ac   Code   RO         2007    i.USART3_Configuration  usart.o
    0x08006118   0x08006118   0x0000009c   Code   RO         2008    i.USART3_IRQHandler  usart.o
    0x080061b4   0x080061b4   0x00000014   Code   RO         3639    i.USART_Cmd         STM32F10xR.LIB(stm32f10x_usart.o)
    0x080061c8   0x080061c8   0x0000006c   Code   RO         3634    i.USART_DeInit      STM32F10xR.LIB(stm32f10x_usart.o)
    0x08006234   0x08006234   0x00000030   Code   RO         3640    i.USART_ITConfig    STM32F10xR.LIB(stm32f10x_usart.o)
    0x08006264   0x08006264   0x00000088   Code   RO         3635    i.USART_Init        STM32F10xR.LIB(stm32f10x_usart.o)
    0x080062ec   0x080062ec   0x00000002   Code   RO         1167    i.USBWakeUp_IRQHandler  stm32f10x_it.o
    0x080062ee   0x080062ee   0x00000010   Code   RO         2152    i.USB_CH341_Init    usb_ch341.o
    0x080062fe   0x080062fe   0x00000002   PAD
    0x08006300   0x08006300   0x00000020   Code   RO         2153    i.USB_Cable_Config  usb_ch341.o
    0x08006320   0x08006320   0x00000002   Code   RO         1168    i.USB_HP_CAN1_TX_IRQHandler  stm32f10x_it.o
    0x08006322   0x08006322   0x00000002   PAD
    0x08006324   0x08006324   0x0000006c   Code   RO         2154    i.USB_Init          usb_ch341.o
    0x08006390   0x08006390   0x00000044   Code   RO         2155    i.USB_Interrupts_Config  usb_ch341.o
    0x080063d4   0x080063d4   0x00000074   Code   RO         2156    i.USB_LP_CAN1_RX0_IRQHandler  usb_ch341.o
    0x08006448   0x08006448   0x00000024   Code   RO         2157    i.USB_receive       usb_ch341.o
    0x0800646c   0x0800646c   0x00000044   Code   RO         2158    i.USB_send          usb_ch341.o
    0x080064b0   0x080064b0   0x000001e8   Code   RO         1020    i.UartSendData      serial.o
    0x08006698   0x08006698   0x0000001c   Code   RO         1169    i.UsageFault_Handler  stm32f10x_it.o
    0x080066b4   0x080066b4   0x00000038   Code   RO         2159    i.UserToPMABufferCopy  usb_ch341.o
    0x080066ec   0x080066ec   0x0000008c   Code   RO         2160    i.Vender_Handle_CH341  usb_ch341.o
    0x08006778   0x08006778   0x00000074   Code   RO         2161    i.Virtual_Com_Port_Data_Setup  usb_ch341.o
    0x080067ec   0x080067ec   0x00000014   Code   RO         2162    i.Virtual_Com_Port_GetConfigDescriptor  usb_ch341.o
    0x08006800   0x08006800   0x00000014   Code   RO         2163    i.Virtual_Com_Port_GetDeviceDescriptor  usb_ch341.o
    0x08006814   0x08006814   0x0000001c   Code   RO         2164    i.Virtual_Com_Port_GetLineCoding  usb_ch341.o
    0x08006830   0x08006830   0x00000028   Code   RO         2165    i.Virtual_Com_Port_GetStringDescriptor  usb_ch341.o
    0x08006858   0x08006858   0x00000016   Code   RO         2166    i.Virtual_Com_Port_Get_Interface_Setting  usb_ch341.o
    0x0800686e   0x0800686e   0x00000002   PAD
    0x08006870   0x08006870   0x00000108   Code   RO         2167    i.Virtual_Com_Port_NoData_Setup  usb_ch341.o
    0x08006978   0x08006978   0x000000d8   Code   RO         2168    i.Virtual_Com_Port_Reset  usb_ch341.o
    0x08006a50   0x08006a50   0x00000018   Code   RO         2169    i.Virtual_Com_Port_SetConfiguration  usb_ch341.o
    0x08006a68   0x08006a68   0x0000000c   Code   RO         2170    i.Virtual_Com_Port_SetDeviceAddress  usb_ch341.o
    0x08006a74   0x08006a74   0x0000001c   Code   RO         2171    i.Virtual_Com_Port_SetLineCoding  usb_ch341.o
    0x08006a90   0x08006a90   0x00000014   Code   RO         2172    i.Virtual_Com_Port_Status_In  usb_ch341.o
    0x08006aa4   0x08006aa4   0x00000002   Code   RO         2173    i.Virtual_Com_Port_Status_Out  usb_ch341.o
    0x08006aa6   0x08006aa6   0x00000002   PAD
    0x08006aa8   0x08006aa8   0x00000044   Code   RO         2174    i.Virtual_Com_Port_init  usb_ch341.o
    0x08006aec   0x08006aec   0x00000002   Code   RO         1170    i.WWDG_IRQHandler   stm32f10x_it.o
    0x08006aee   0x08006aee   0x00000028   Code   RO         3981    i.__ARM_fpclassify  m_ws.l(fpclassify.o)
    0x08006b16   0x08006b16   0x00000002   PAD
    0x08006b18   0x08006b18   0x00000388   Code   RO         3938    i.__ieee754_rem_pio2  m_ws.l(rred.o)
    0x08006ea0   0x08006ea0   0x000000fc   Code   RO         3920    i.__kernel_cos      m_ws.l(cos_i.o)
    0x08006f9c   0x08006f9c   0x000000aa   Code   RO         3983    i.__kernel_poly     m_ws.l(poly.o)
    0x08007046   0x08007046   0x00000002   PAD
    0x08007048   0x08007048   0x000000ec   Code   RO         3943    i.__kernel_sin      m_ws.l(sin_i.o)
    0x08007134   0x08007134   0x00000006   Code   RO         3924    i.__mathlib_dbl_infnan  m_ws.l(dunder.o)
    0x0800713a   0x0800713a   0x00000004   Code   RO         3925    i.__mathlib_dbl_infnan2  m_ws.l(dunder.o)
    0x0800713e   0x0800713e   0x0000000c   Code   RO         3926    i.__mathlib_dbl_invalid  m_ws.l(dunder.o)
    0x0800714a   0x0800714a   0x00000002   PAD
    0x0800714c   0x0800714c   0x00000010   Code   RO         3929    i.__mathlib_dbl_underflow  m_ws.l(dunder.o)
    0x0800715c   0x0800715c   0x0000000e   Code   RO         3991    i.__scatterload_copy  mc_w.l(handlers.o)
    0x0800716a   0x0800716a   0x00000002   Code   RO         3992    i.__scatterload_null  mc_w.l(handlers.o)
    0x0800716c   0x0800716c   0x0000000e   Code   RO         3993    i.__scatterload_zeroinit  mc_w.l(handlers.o)
    0x0800717a   0x0800717a   0x00000002   PAD
    0x0800717c   0x0800717c   0x0000000c   Code   RO         3969    i.__set_errno       mc_w.l(errno.o)
    0x08007188   0x08007188   0x000000e8   Code   RO          498    i._atan2            imu.o
    0x08007270   0x08007270   0x00000028   Code   RO          258    i.abort_mission     gps.o
    0x08007298   0x08007298   0x0000033c   Code   RO          704    i.annexCode         multiwii.o
    0x080075d4   0x080075d4   0x00000220   Code   RO         3911    i.atan              m_ws.l(atan.o)
    0x080077f4   0x080077f4   0x00000180   Code   RO         3806    i.atan2             m_ws.l(atan2.o)
    0x08007974   0x08007974   0x0000004c   Code   RO            3    i.blinkLED          alarms.o
    0x080079c0   0x080079c0   0x0000001a   Code   RO          139    i.calculate_sum     eeprom.o
    0x080079da   0x080079da   0x00000002   PAD
    0x080079dc   0x080079dc   0x0000008c   Code   RO          259    i.check_land        gps.o
    0x08007a68   0x08007a68   0x00000038   Code   RO          260    i.check_missed_wp   gps.o
    0x08007aa0   0x08007aa0   0x00000048   Code   RO          261    i.clearNav          gps.o
    0x08007ae8   0x08007ae8   0x000000a8   Code   RO          499    i.computeIMU        imu.o
    0x08007b90   0x08007b90   0x00000108   Code   RO         1087    i.computeRC         rx.o
    0x08007c98   0x08007c98   0x00000002   Code   RO         1088    i.configureReceiver  rx.o
    0x08007c9a   0x08007c9a   0x00000016   Code   RO          263    i.constrain_int16   gps.o
    0x08007cb0   0x08007cb0   0x0000009c   Code   RO         3814    i.cos               m_ws.l(cos.o)
    0x08007d4c   0x08007d4c   0x00000014   Code   RO         1522    i.delay             delay.o
    0x08007d60   0x08007d60   0x00000014   Code   RO         1524    i.delay_ms          delay.o
    0x08007d74   0x08007d74   0x0000006e   Code   RO         1569    i.eeprom_Continuous_reading  re_eeprom.o
    0x08007de2   0x08007de2   0x00000002   PAD
    0x08007de4   0x08007de4   0x00000028   Code   RO         1570    i.eeprom_read_block  re_eeprom.o
    0x08007e0c   0x08007e0c   0x00000028   Code   RO         1571    i.eeprom_write_block  re_eeprom.o
    0x08007e34   0x08007e34   0x00000b98   Code   RO          560    i.evaluateCommand   protocol.o
    0x080089cc   0x080089cc   0x00000018   Code   RO          561    i.evaluateOtherData  protocol.o
    0x080089e4   0x080089e4   0x0000001c   Code   RO          264    i.force_new_altitude  gps.o
    0x08008a00   0x08008a00   0x00000350   Code   RO          500    i.getEstimatedAttitude  imu.o
    0x08008d50   0x08008d50   0x0000001c   Code   RO          140    i.getMaxWPNumber    eeprom.o
    0x08008d6c   0x08008d6c   0x0000006c   Code   RO          265    i.get_D             gps.o
    0x08008dd8   0x08008dd8   0x00000060   Code   RO          266    i.get_I             gps.o
    0x08008e38   0x08008e38   0x00000020   Code   RO          267    i.get_P             gps.o
    0x08008e58   0x08008e58   0x00000054   Code   RO          810    i.get_middle        output.o
    0x08008eac   0x08008eac   0x00000128   Code   RO          269    i.get_new_altitude  gps.o
    0x08008fd4   0x08008fd4   0x000000b0   Code   RO          270    i.get_position      gps.o
    0x08009084   0x08009084   0x00000070   Code   RO          706    i.go_arm            multiwii.o
    0x080090f4   0x080090f4   0x0000001c   Code   RO          707    i.go_disarm         multiwii.o
    0x08009110   0x08009110   0x0000000c   Code   RO          562    i.headSerialError   protocol.o
    0x0800911c   0x0800911c   0x0000000e   Code   RO          563    i.headSerialReply   protocol.o
    0x0800912a   0x0800912a   0x00000002   PAD
    0x0800912c   0x0800912c   0x0000004c   Code   RO          564    i.headSerialResponse  protocol.o
    0x08009178   0x08009178   0x00000018   Code   RO          878    i.i2c_getSixRawADC  sensors.o
    0x08009190   0x08009190   0x00000014   Code   RO          879    i.i2c_init          sensors.o
    0x080091a4   0x080091a4   0x00000012   Code   RO          880    i.i2c_readAck       sensors.o
    0x080091b6   0x080091b6   0x00000016   Code   RO          881    i.i2c_readNak       sensors.o
    0x080091cc   0x080091cc   0x000000a0   Code   RO          883    i.i2c_read_reg_to_buf  sensors.o
    0x0800926c   0x0800926c   0x00000028   Code   RO          887    i.i2c_writeReg      sensors.o
    0x08009294   0x08009294   0x00000040   Code   RO          811    i.initOutput        output.o
    0x080092d4   0x080092d4   0x00000014   Code   RO          888    i.initS             sensors.o
    0x080092e8   0x080092e8   0x00000024   Code   RO          889    i.initSensors       sensors.o
    0x0800930c   0x0800930c   0x000000bc   Code   RO          273    i.init_RTH          gps.o
    0x080093c8   0x080093c8   0x00000004   Code   RO          812    i.initializeServo   output.o
    0x080093cc   0x080093cc   0x000000c4   Code   RO          141    i.loadGPSdefaults   eeprom.o
    0x08009490   0x08009490   0x00000d18   Code   RO          708    i.loop              multiwii.o
    0x0800a1a8   0x0800a1a8   0x00000108   Code   RO          709    i.main              multiwii.o
    0x0800a2b0   0x0800a2b0   0x00000016   Code   RO          813    i.map               output.o
    0x0800a2c6   0x0800a2c6   0x00000002   PAD
    0x0800a2c8   0x0800a2c8   0x00000028   Code   RO         1459    i.micros            timer.o
    0x0800a2f0   0x0800a2f0   0x0000000c   Code   RO         1460    i.millis            timer.o
    0x0800a2fc   0x0800a2fc   0x00000278   Code   RO          814    i.mixTable          output.o
    0x0800a574   0x0800a574   0x0000000e   Code   RO          565    i.mspAck            protocol.o
    0x0800a582   0x0800a582   0x00000008   Code   RO          501    i.mul               imu.o
    0x0800a58a   0x0800a58a   0x00000006   Code   RO          566    i.pgm_read_byte_near  protocol.o
    0x0800a590   0x0800a590   0x00000016   Code   RO          567    i.read16            protocol.o
    0x0800a5a6   0x0800a5a6   0x00000014   Code   RO          568    i.read32            protocol.o
    0x0800a5ba   0x0800a5ba   0x00000002   PAD
    0x0800a5bc   0x0800a5bc   0x00000034   Code   RO          569    i.read8             protocol.o
    0x0800a5f0   0x0800a5f0   0x0000011c   Code   RO          142    i.readEEPROM        eeprom.o
    0x0800a70c   0x0800a70c   0x00000030   Code   RO          143    i.readGlobalSet     eeprom.o
    0x0800a73c   0x0800a73c   0x0000003c   Code   RO         1089    i.readRawRC         rx.o
    0x0800a778   0x0800a778   0x0000002c   Code   RO          144    i.recallGPSconf     eeprom.o
    0x0800a7a4   0x0800a7a4   0x0000003c   Code   RO          145    i.recallWP          eeprom.o
    0x0800a7e0   0x0800a7e0   0x0000000a   Code   RO          274    i.reset_PID         gps.o
    0x0800a7ea   0x0800a7ea   0x00000074   Code   RO          502    i.rotateV32         imu.o
    0x0800a85e   0x0800a85e   0x0000001a   Code   RO          570    i.s_struct          protocol.o
    0x0800a878   0x0800a878   0x0000001c   Code   RO          571    i.s_struct_partial  protocol.o
    0x0800a894   0x0800a894   0x0000001c   Code   RO          572    i.s_struct_w        protocol.o
    0x0800a8b0   0x0800a8b0   0x000001a8   Code   RO          573    i.serialCom         protocol.o
    0x0800aa58   0x0800aa58   0x00000014   Code   RO          574    i.serialize16       protocol.o
    0x0800aa6c   0x0800aa6c   0x00000022   Code   RO          575    i.serialize32       protocol.o
    0x0800aa8e   0x0800aa8e   0x00000002   PAD
    0x0800aa90   0x0800aa90   0x0000002c   Code   RO          576    i.serialize8        protocol.o
    0x0800aabc   0x0800aabc   0x00000034   Code   RO          577    i.serializeNames    protocol.o
    0x0800aaf0   0x0800aaf0   0x0000000c   Code   RO          275    i.set_new_altitude  gps.o
    0x0800aafc   0x0800aafc   0x0000009c   Code   RO          711    i.setup             multiwii.o
    0x0800ab98   0x0800ab98   0x000000a0   Code   RO         3822    i.sin               m_ws.l(sin.o)
    0x0800ac38   0x0800ac38   0x0000004c   Code   RO         3830    i.sqrt              m_ws.l(sqrt.o)
    0x0800ac84   0x0800ac84   0x00000038   Code   RO          146    i.storeWP           eeprom.o
    0x0800acbc   0x0800acbc   0x00000038   Code   RO         1021    i.store_uart_in_buf  serial.o
    0x0800acf4   0x0800acf4   0x00000012   Code   RO          578    i.strlen_P          protocol.o
    0x0800ad06   0x0800ad06   0x00000002   PAD
    0x0800ad08   0x0800ad08   0x00000020   Code   RO          579    i.tailSerialReply   protocol.o
    0x0800ad28   0x0800ad28   0x00000078   Code   RO         2009    i.uart_init         usart.o
    0x0800ada0   0x0800ada0   0x00000030   Code   RO          147    i.update_constants  eeprom.o
    0x0800add0   0x0800add0   0x00000020   Code   RO          276    i.wrap_18000        gps.o
    0x0800adf0   0x0800adf0   0x00000016   Code   RO          277    i.wrap_36000        gps.o
    0x0800ae06   0x0800ae06   0x00000002   PAD
    0x0800ae08   0x0800ae08   0x00000020   Code   RO          815    i.writeAllMotors    output.o
    0x0800ae28   0x0800ae28   0x00000020   Code   RO          148    i.writeGPSconf      eeprom.o
    0x0800ae48   0x0800ae48   0x00000030   Code   RO          149    i.writeGlobalSet    eeprom.o
    0x0800ae78   0x0800ae78   0x00000024   Code   RO          816    i.writeMotors       output.o
    0x0800ae9c   0x0800ae9c   0x00000054   Code   RO          150    i.writeParams       eeprom.o
    0x0800aef0   0x0800aef0   0x00000040   Code   RO          817    i.writeServos       output.o
    0x0800af30   0x0800af30   0x00000096   Data   RO          713    .constdata          multiwii.o
    0x0800afc6   0x0800afc6   0x00000095   Data   RO         2176    .constdata          usb_ch341.o
    0x0800b05b   0x0800b05b   0x00000014   Data   RO         2928    .constdata          STM32F10xR.LIB(stm32f10x_rcc.o)
    0x0800b06f   0x0800b06f   0x00000001   PAD
    0x0800b070   0x0800b070   0x00000098   Data   RO         3912    .constdata          m_ws.l(atan.o)
    0x0800b108   0x0800b108   0x00000030   Data   RO         3921    .constdata          m_ws.l(cos_i.o)
    0x0800b138   0x0800b138   0x00000008   Data   RO         3937    .constdata          m_ws.l(qnan.o)
    0x0800b140   0x0800b140   0x000000c8   Data   RO         3940    .constdata          m_ws.l(rred.o)
    0x0800b208   0x0800b208   0x00000028   Data   RO         3944    .constdata          m_ws.l(sin_i.o)
    0x0800b230   0x0800b230   0x00000020   Data   RO         3989    Region$$Table       anon$$obj.o


    Execution Region RW_IRAM1 (Exec base: 0x20000000, Load base: 0x0800b250, Size: 0x00004170, Max: 0x00005000, ABSOLUTE, COMPRESSED[0x000000e4])

    Exec Addr    Load Addr    Size         Type   Attr      Idx    E Section Name        Object

    0x20000000   COMPRESSED   0x0000000c   Data   RW          151    .data               eeprom.o
    0x2000000c   COMPRESSED   0x00000121   Data   RW          280    .data               gps.o
    0x2000012d   COMPRESSED   0x00000003   PAD
    0x20000130   COMPRESSED   0x0000002e   Data   RW          504    .data               imu.o
    0x2000015e   COMPRESSED   0x00000002   PAD
    0x20000160   COMPRESSED   0x0000002c   Data   RW          581    .data               protocol.o
    0x2000018c   COMPRESSED   0x00000110   Data   RW          714    .data               multiwii.o
    0x2000029c   COMPRESSED   0x00000010   Data   RW          818    .data               output.o
    0x200002ac   COMPRESSED   0x00000030   Data   RW          891    .data               sensors.o
    0x200002dc   COMPRESSED   0x00000020   Data   RW         1024    .data               serial.o
    0x200002fc   COMPRESSED   0x00000025   Data   RW         1091    .data               rx.o
    0x20000321   COMPRESSED   0x00000007   PAD
    0x20000328   COMPRESSED   0x00000028   Data   RW         1462    .data               timer.o
    0x20000350   COMPRESSED   0x00000004   Data   RW         1526    .data               delay.o
    0x20000354   COMPRESSED   0x00000002   Data   RW         1572    .data               re_eeprom.o
    0x20000356   COMPRESSED   0x00000002   PAD
    0x20000358   COMPRESSED   0x0000000b   Data   RW         2011    .data               usart.o
    0x20000363   COMPRESSED   0x00000001   PAD
    0x20000364   COMPRESSED   0x00000125   Data   RW         2177    .data               usb_ch341.o
    0x20000489   COMPRESSED   0x00000003   PAD
    0x2000048c   COMPRESSED   0x00000004   Data   RW         3970    .data               mc_w.l(errno.o)
    0x20000490        -       0x0000013c   Zero   RW          278    .bss                gps.o
    0x200005cc        -       0x00000018   Zero   RW          503    .bss                imu.o
    0x200005e4        -       0x00000160   Zero   RW          580    .bss                protocol.o
    0x20000744        -       0x0000022c   Zero   RW          712    .bss                multiwii.o
    0x20000970        -       0x00000024   Zero   RW          890    .bss                sensors.o
    0x20000994        -       0x00000600   Zero   RW         1023    .bss                serial.o
    0x20000f94        -       0x00000048   Zero   RW         1090    .bss                rx.o
    0x20000fdc        -       0x00000156   Zero   RW         2010    .bss                usart.o
    0x20001132   COMPRESSED   0x00000002   PAD
    0x20001134        -       0x0000003c   Zero   RW         2175    .bss                usb_ch341.o
    0x20001170        -       0x00003000   Zero   RW         1996    STACK               startup_stm32f10x_hd.o


==============================================================================

Image component sizes


      Code (inc. data)   RO Data    RW Data    ZI Data      Debug   Object Name

        76          8          0          0          0     232759   alarms.o
        40          8          0          4          0       1080   delay.o
      1294         74          0         12          0       8180   eeprom.o
     11258       1300          0        289        316      28267   gps.o
       838         34          0          0          0       4669   gy_86.o
      1448        104          0         46         24       6062   imu.o
       152         30          0          0          0       2157   misc.o
      4868        436        150        272        556      27448   multiwii.o
       938         76          0         16          0       5180   output.o
      3914        406          0         44        352      14778   protocol.o
      1450         50          0          2          0       9714   re_eeprom.o
       326         36          0         37         72       2661   rx.o
      1980        160          0         48         36       9912   sensors.o
       800         96          0         32       1536       4320   serial.o
        36          8        304          0      12288        880   startup_stm32f10x_hd.o
       252         32          0          0          0      22658   stm32f10x_it.o
       316         42          0          0          0       1974   sys.o
       328         28          0          0          0       1805   system_stm32f10x.o
       672         60          0         40          0       2799   timer.o
      1044         86          0         11        342       4649   usart.o
      6276        684        149        293         60      54143   usb_ch341.o

    ----------------------------------------------------------------------
     38354       3758        635       1164      15584     446095   Object Totals
         0          0         32          0          0          0   (incl. Generated)
        48          0          0         18          2          0   (incl. Padding)

    ----------------------------------------------------------------------

      Code (inc. data)   RO Data    RW Data    ZI Data      Debug   Library Member Name

       168          0          0          0          0      32628   stm32f10x_gpio.o
       256         46         20          0          0       5551   stm32f10x_rcc.o
         8          0          0          0          0      25460   stm32f10x_tim.o
       312         16          0          0          0       9965   stm32f10x_usart.o
       544         70        152          0          0        124   atan.o
       384         38          0          0          0        144   atan2.o
       156          8          0          0          0        104   cos.o
       252         22         48          0          0        124   cos_i.o
        38          6          0          0          0        272   dunder.o
        40          0          0          0          0         68   fpclassify.o
       170          0          0          0          0         96   poly.o
         0          0          8          0          0          0   qnan.o
       904         76        200          0          0        140   rred.o
       160         10          0          0          0        108   sin.o
       236         12         40          0          0        128   sin_i.o
        76          0          0          0          0         84   sqrt.o
        86          0          0          0          0          0   __dczerorl2.o
         0          0          0          0          0          0   entry.o
         0          0          0          0          0          0   entry10a.o
         0          0          0          0          0          0   entry11a.o
         8          4          0          0          0          0   entry2.o
         4          0          0          0          0          0   entry5.o
         0          0          0          0          0          0   entry7b.o
         0          0          0          0          0          0   entry8b.o
         8          4          0          0          0          0   entry9a.o
        12          6          0          4          0         68   errno.o
        30          0          0          0          0          0   handlers.o
        36          8          0          0          0         68   init.o
         0          0          0          0          0          0   iusefp.o
        30          0          0          0          0         68   llshl.o
        36          0          0          0          0         68   llsshr.o
        32          0          0          0          0         68   llushr.o
        48          0          0          0          0         68   cdcmple.o
        48          0          0          0          0         68   cdrcmple.o
        20          0          0          0          0         68   cfcmple.o
        20          0          0          0          0         68   cfrcmple.o
        56          0          0          0          0         88   d2f.o
       334          0          0          0          0        148   dadd.o
       222          0          0          0          0        100   ddiv.o
       186          0          0          0          0        176   depilogue.o
        62          0          0          0          0         80   dfixi.o
        50          0          0          0          0         76   dfixui.o
        34          0          0          0          0         76   dflti.o
        26          0          0          0          0         76   dfltui.o
       228          0          0          0          0         96   dmul.o
        46          0          0          0          0         80   dscalb.o
       162          0          0          0          0        100   dsqrt.o
        38          0          0          0          0         68   f2d.o
       176          0          0          0          0        140   fadd.o
       124          0          0          0          0         88   fdiv.o
       110          0          0          0          0        168   fepilogue.o
        50          0          0          0          0         68   ffixi.o
        18          0          0          0          0         68   fflti.o
        10          0          0          0          0         68   ffltui.o
        28          0          0          0          0         84   ffltul.o
       100          0          0          0          0         76   fmul.o

    ----------------------------------------------------------------------
      6190        326        469          4          0      77532   Library Totals
         8          0          1          0          0          0   (incl. Padding)

    ----------------------------------------------------------------------

      Code (inc. data)   RO Data    RW Data    ZI Data      Debug   Library Name

       744         62         20          0          0      73604   STM32F10xR.LIB
      2960        242        448          0          0       1392   m_ws.l
       282         22          0          4          0        340   mc_w.l
      2196          0          0          0          0       2196   mf_w.l

    ----------------------------------------------------------------------
      6190        326        469          4          0      77532   Library Totals

    ----------------------------------------------------------------------

==============================================================================


      Code (inc. data)   RO Data    RW Data    ZI Data      Debug   

     44544       4084       1104       1168      15584     506461   Grand Totals
     44544       4084       1104        228      15584     506461   ELF Image Totals (compressed)
     44544       4084       1104        228          0          0   ROM Totals

==============================================================================

    Total RO  Size (Code + RO Data)                45648 (  44.58kB)
    Total RW  Size (RW Data + ZI Data)             16752 (  16.36kB)
    Total ROM Size (Code + RO Data + RW Data)      45876 (  44.80kB)

==============================================================================

